ccopy_reg
_reconstructor
p0
(cnltk.classify.naivebayes
NaiveBayesClassifier
p1
c__builtin__
object
p2
Ntp3
Rp4
(dp5
S'_labels'
p6
(lp7
S'positive'
p8
aS'negative'
p9
asS'_feature_probdist'
p10
(dp11
(g9
S'hasYes'
p12
tp13
g0
(cnltk.probability
ELEProbDist
p14
g2
Ntp15
Rp16
(dp17
S'_gamma'
p18
F0.5
sS'_N'
p19
I799830
sS'_freqdist'
p20
cnltk.probability
FreqDist
p21
((dp22
I00
I797027
sI01
I2803
stp23
Rp24
sS'_bins'
p25
I2
sS'_divisor'
p26
F799831.0
sbs(g9
S'hasIdiot'
p27
tp28
g0
(g14
g2
Ntp29
Rp30
(dp31
g18
F0.5
sg19
I799830
sg20
g21
((dp32
I00
I799294
sI01
I536
stp33
Rp34
sg25
I2
sg26
F799831.0
sbs(g8
S'hasFunny'
p35
tp36
g0
(g14
g2
Ntp37
Rp38
(dp39
g18
F0.5
sg19
I799914
sg20
g21
((dp40
I00
I795280
sI01
I4634
stp41
Rp42
sg25
I2
sg26
F799915.0
sbs(g9
S'hasPay'
p43
tp44
g0
(g14
g2
Ntp45
Rp46
(dp47
g18
F0.5
sg19
I799830
sg20
g21
((dp48
I00
I796960
sI01
I2870
stp49
Rp50
sg25
I2
sg26
F799831.0
sbs(g9
S'hasDislike'
p51
tp52
g0
(g14
g2
Ntp53
Rp54
(dp55
g18
F0.5
sg19
I799830
sg20
g21
((dp56
I00
I799583
sI01
I247
stp57
Rp58
sg25
I2
sg26
F799831.0
sbs(g9
S'hasHate'
p59
tp60
g0
(g14
g2
Ntp61
Rp62
(dp63
g18
F0.5
sg19
I799830
sg20
g21
((dp64
I00
I779582
sI01
I20248
stp65
Rp66
sg25
I2
sg26
F799831.0
sbs(g9
S'hasCheap'
p67
tp68
g0
(g14
g2
Ntp69
Rp70
(dp71
g18
F0.5
sg19
I799830
sg20
g21
((dp72
I00
I799148
sI01
I682
stp73
Rp74
sg25
I2
sg26
F799831.0
sbs(g9
S'hasHurt'
p75
tp76
g0
(g14
g2
Ntp77
Rp78
(dp79
g18
F0.5
sg19
I799830
sg20
g21
((dp80
I00
I786988
sI01
I12842
stp81
Rp82
sg25
I2
sg26
F799831.0
sbs(g8
S'hasSuck'
p83
tp84
g0
(g14
g2
Ntp85
Rp86
(dp87
g18
F0.5
sg19
I799914
sg20
g21
((dp88
I00
I797544
sI01
I2370
stp89
Rp90
sg25
I2
sg26
F799915.0
sbs(g8
S'hasAss'
p91
tp92
g0
(g14
g2
Ntp93
Rp94
(dp95
g18
F0.5
sg19
I799914
sg20
g21
((dp96
I00
I798424
sI01
I1490
stp97
Rp98
sg25
I2
sg26
F799915.0
sbs(g9
S'hasLoss'
p99
tp100
g0
(g14
g2
Ntp101
Rp102
(dp103
g18
F0.5
sg19
I799830
sg20
g21
((dp104
I00
I790072
sI01
I9758
stp105
Rp106
sg25
I2
sg26
F799831.0
sbs(g9
S'hasWtf'
p107
tp108
g0
(g14
g2
Ntp109
Rp110
(dp111
g18
F0.5
sg19
I799830
sg20
g21
((dp112
I00
I797470
sI01
I2360
stp113
Rp114
sg25
I2
sg26
F799831.0
sbs(g9
S'hasCurse'
p115
tp116
g0
(g14
g2
Ntp117
Rp118
(dp119
g18
F0.5
sg19
I799830
sg20
g21
((dp120
I00
I799462
sI01
I368
stp121
Rp122
sg25
I2
sg26
F799831.0
sbs(g8
S'hasLove'
p123
tp124
g0
(g14
g2
Ntp125
Rp126
(dp127
g18
F0.5
sg19
I799914
sg20
g21
((dp128
I00
I736715
sI01
I63199
stp129
Rp130
sg25
I2
sg26
F799915.0
sbs(g8
S'hasSad'
p131
tp132
g0
(g14
g2
Ntp133
Rp134
(dp135
g18
F0.5
sg19
I799914
sg20
g21
((dp136
I00
I797220
sI01
I2694
stp137
Rp138
sg25
I2
sg26
F799915.0
sbs(g8
S'hasWow'
p139
tp140
g0
(g14
g2
Ntp141
Rp142
(dp143
g18
F0.5
sg19
I799914
sg20
g21
((dp144
I00
I793026
sI01
I6888
stp145
Rp146
sg25
I2
sg26
F799915.0
sbs(g8
S'hasLol'
p147
tp148
g0
(g14
g2
Ntp149
Rp150
(dp151
g18
F0.5
sg19
I799914
sg20
g21
((dp152
I00
I776307
sI01
I23607
stp153
Rp154
sg25
I2
sg26
F799915.0
sbs(g9
g83
tp155
g0
(g14
g2
Ntp156
Rp157
(dp158
g18
F0.5
sg19
I799830
sg20
g21
((dp159
I00
I785464
sI01
I14366
stp160
Rp161
sg25
I2
sg26
F799831.0
sbs(g8
S'hasFun'
p162
tp163
g0
(g14
g2
Ntp164
Rp165
(dp166
g18
F0.5
sg19
I799914
sg20
g21
((dp167
I00
I774385
sI01
I25529
stp168
Rp169
sg25
I2
sg26
F799915.0
sbs(g8
S'hasAwesome'
p170
tp171
g0
(g14
g2
Ntp172
Rp173
(dp174
g18
F0.5
sg19
I799914
sg20
g21
((dp175
I00
I784917
sI01
I14997
stp176
Rp177
sg25
I2
sg26
F799915.0
sbs(g9
S'hasFree'
p178
tp179
g0
(g14
g2
Ntp180
Rp181
(dp182
g18
F0.5
sg19
I799830
sg20
g21
((dp183
I00
I795012
sI01
I4818
stp184
Rp185
sg25
I2
sg26
F799831.0
sbs(g8
S'hasPlay'
p186
tp187
g0
(g14
g2
Ntp188
Rp189
(dp190
g18
F0.5
sg19
I799914
sg20
g21
((dp191
I00
I787374
sI01
I12540
stp192
Rp193
sg25
I2
sg26
F799915.0
sbs(g8
S'hasCold'
p194
tp195
g0
(g14
g2
Ntp196
Rp197
(dp198
g18
F0.5
sg19
I799914
sg20
g21
((dp199
I00
I796195
sI01
I3719
stp200
Rp201
sg25
I2
sg26
F799915.0
sbs(g8
S'hasWinky'
p202
tp203
g0
(g14
g2
Ntp204
Rp205
(dp206
g18
F0.5
sg19
I799914
sg20
g21
((dp207
I00
I795532
sI01
I4382
stp208
Rp209
sg25
I2
sg26
F799915.0
sbs(g8
S'hasFriend'
p210
tp211
g0
(g14
g2
Ntp212
Rp213
(dp214
g18
F0.5
sg19
I799914
sg20
g21
((dp215
I00
I795532
sI01
I4382
stp216
Rp217
sg25
I2
sg26
F799915.0
sbs(g9
S'hasOpportunity'
p218
tp219
g0
(g14
g2
Ntp220
Rp221
(dp222
g18
F0.5
sg19
I799830
sg20
g21
((dp223
I00
I799676
sI01
I154
stp224
Rp225
sg25
I2
sg26
F799831.0
sbs(g9
g147
tp226
g0
(g14
g2
Ntp227
Rp228
(dp229
g18
F0.5
sg19
I799830
sg20
g21
((dp230
I00
I783489
sI01
I16341
stp231
Rp232
sg25
I2
sg26
F799831.0
sbs(g9
S'hasRepeats'
p233
tp234
g0
(g14
g2
Ntp235
Rp236
(dp237
g18
F0.5
sg19
I799830
sg20
g21
((dp238
I00
I564368
sI01
I235462
stp239
Rp240
sg25
I2
sg26
F799831.0
sbs(g8
g51
tp241
g0
(g14
g2
Ntp242
Rp243
(dp244
g18
F0.5
sg19
I799914
sg20
g21
((dp245
I00
I799855
sI01
I59
stp246
Rp247
sg25
I2
sg26
F799915.0
sbs(g9
S'hasBest'
p248
tp249
g0
(g14
g2
Ntp250
Rp251
(dp252
g18
F0.5
sg19
I799830
sg20
g21
((dp253
I00
I793708
sI01
I6122
stp254
Rp255
sg25
I2
sg26
F799831.0
sbs(g8
S'hasCool'
p256
tp257
g0
(g14
g2
Ntp258
Rp259
(dp260
g18
F0.5
sg19
I799914
sg20
g21
((dp261
I00
I788195
sI01
I11719
stp262
Rp263
sg25
I2
sg26
F799915.0
sbs(g8
S'hasThanks'
p264
tp265
g0
(g14
g2
Ntp266
Rp267
(dp268
g18
F0.5
sg19
I799914
sg20
g21
((dp269
I00
I774018
sI01
I25896
stp270
Rp271
sg25
I2
sg26
F799915.0
sbs(g9
S'hasFantastic'
p272
tp273
g0
(g14
g2
Ntp274
Rp275
(dp276
g18
F0.5
sg19
I799830
sg20
g21
((dp277
I00
I799417
sI01
I413
stp278
Rp279
sg25
I2
sg26
F799831.0
sbs(g9
S'hasWorst'
p280
tp281
g0
(g14
g2
Ntp282
Rp283
(dp284
g18
F0.5
sg19
I799830
sg20
g21
((dp285
I00
I797072
sI01
I2758
stp286
Rp287
sg25
I2
sg26
F799831.0
sbs(g9
S'hasExpense'
p288
tp289
g0
(g14
g2
Ntp290
Rp291
(dp292
g18
F0.5
sg19
I799830
sg20
g21
((dp293
I00
I799081
sI01
I749
stp294
Rp295
sg25
I2
sg26
F799831.0
sbs(g9
S'hasSmell'
p296
tp297
g0
(g14
g2
Ntp298
Rp299
(dp300
g18
F0.5
sg19
I799830
sg20
g21
((dp301
I00
I798514
sI01
I1316
stp302
Rp303
sg25
I2
sg26
F799831.0
sbs(g8
S'hasFrowny'
p304
tp305
g0
(g14
g2
Ntp306
Rp307
(dp308
g18
F0.5
sg19
I799914
sg20
g21
((dp309
I00
I799798
sI01
I116
stp310
Rp311
sg25
I2
sg26
F799915.0
sbs(g8
g12
tp312
g0
(g14
g2
Ntp313
Rp314
(dp315
g18
F0.5
sg19
I799914
sg20
g21
((dp316
I00
I794180
sI01
I5734
stp317
Rp318
sg25
I2
sg26
F799915.0
sbs(g8
S'hasSave'
p319
tp320
g0
(g14
g2
Ntp321
Rp322
(dp323
g18
F0.5
sg19
I799914
sg20
g21
((dp324
I00
I798189
sI01
I1725
stp325
Rp326
sg25
I2
sg26
F799915.0
sbs(g9
g131
tp327
g0
(g14
g2
Ntp328
Rp329
(dp330
g18
F0.5
sg19
I799830
sg20
g21
((dp331
I00
I768037
sI01
I31793
stp332
Rp333
sg25
I2
sg26
F799831.0
sbs(g8
g43
tp334
g0
(g14
g2
Ntp335
Rp336
(dp337
g18
F0.5
sg19
I799914
sg20
g21
((dp338
I00
I796304
sI01
I3610
stp339
Rp340
sg25
I2
sg26
F799915.0
sbs(g8
S'hasNo'
p341
tp342
g0
(g14
g2
Ntp343
Rp344
(dp345
g18
F0.5
sg19
I799914
sg20
g21
((dp346
I00
I782274
sI01
I17640
stp347
Rp348
sg25
I2
sg26
F799915.0
sbs(g9
S'hasScary'
p349
tp350
g0
(g14
g2
Ntp351
Rp352
(dp353
g18
F0.5
sg19
I799830
sg20
g21
((dp354
I00
I798817
sI01
I1013
stp355
Rp356
sg25
I2
sg26
F799831.0
sbs(g8
g59
tp357
g0
(g14
g2
Ntp358
Rp359
(dp360
g18
F0.5
sg19
I799914
sg20
g21
((dp361
I00
I795138
sI01
I4776
stp362
Rp363
sg25
I2
sg26
F799915.0
sbs(g8
g75
tp364
g0
(g14
g2
Ntp365
Rp366
(dp367
g18
F0.5
sg19
I799914
sg20
g21
((dp368
I00
I798490
sI01
I1424
stp369
Rp370
sg25
I2
sg26
F799915.0
sbs(g9
g194
tp371
g0
(g14
g2
Ntp372
Rp373
(dp374
g18
F0.5
sg19
I799830
sg20
g21
((dp375
I00
I795135
sI01
I4695
stp376
Rp377
sg25
I2
sg26
F799831.0
sbs(g9
S'hasExclamation'
p378
tp379
g0
(g14
g2
Ntp380
Rp381
(dp382
g18
F0.5
sg19
I799830
sg20
g21
((dp383
I00
I601514
sI01
I198316
stp384
Rp385
sg25
I2
sg26
F799831.0
sbs(g9
S'hasUgh'
p386
tp387
g0
(g14
g2
Ntp388
Rp389
(dp390
g18
F0.5
sg19
I799830
sg20
g21
((dp391
I00
I749355
sI01
I50475
stp392
Rp393
sg25
I2
sg26
F799831.0
sbs(g8
g115
tp394
g0
(g14
g2
Ntp395
Rp396
(dp397
g18
F0.5
sg19
I799914
sg20
g21
((dp398
I00
I799729
sI01
I185
stp399
Rp400
sg25
I2
sg26
F799915.0
sbs(g8
g233
tp401
g0
(g14
g2
Ntp402
Rp403
(dp404
g18
F0.5
sg19
I799914
sg20
g21
((dp405
I00
I589634
sI01
I210280
stp406
Rp407
sg25
I2
sg26
F799915.0
sbs(g9
S'hasExcited'
p408
tp409
g0
(g14
g2
Ntp410
Rp411
(dp412
g18
F0.5
sg19
I799830
sg20
g21
((dp413
I00
I797660
sI01
I2170
stp414
Rp415
sg25
I2
sg26
F799831.0
sbs(g9
S'hasLike'
p416
tp417
g0
(g14
g2
Ntp418
Rp419
(dp420
g18
F0.5
sg19
I799830
sg20
g21
((dp421
I00
I761674
sI01
I38156
stp422
Rp423
sg25
I2
sg26
F799831.0
sbs(g9
g139
tp424
g0
(g14
g2
Ntp425
Rp426
(dp427
g18
F0.5
sg19
I799830
sg20
g21
((dp428
I00
I794982
sI01
I4848
stp429
Rp430
sg25
I2
sg26
F799831.0
sbs(g9
g264
tp431
g0
(g14
g2
Ntp432
Rp433
(dp434
g18
F0.5
sg19
I799830
sg20
g21
((dp435
I00
I795811
sI01
I4019
stp436
Rp437
sg25
I2
sg26
F799831.0
sbs(g8
g272
tp438
g0
(g14
g2
Ntp439
Rp440
(dp441
g18
F0.5
sg19
I799914
sg20
g21
((dp442
I00
I798315
sI01
I1599
stp443
Rp444
sg25
I2
sg26
F799915.0
sbs(g8
g178
tp445
g0
(g14
g2
Ntp446
Rp447
(dp448
g18
F0.5
sg19
I799914
sg20
g21
((dp449
I00
I793158
sI01
I6756
stp450
Rp451
sg25
I2
sg26
F799915.0
sbs(g9
S'hasHot'
p452
tp453
g0
(g14
g2
Ntp454
Rp455
(dp456
g18
F0.5
sg19
I799830
sg20
g21
((dp457
I00
I795004
sI01
I4826
stp458
Rp459
sg25
I2
sg26
F799831.0
sbs(g9
S'hasSmiley'
p460
tp461
g0
(g14
g2
Ntp462
Rp463
(dp464
g18
F0.5
sg19
I799830
sg20
g21
((dp465
I00
I799214
sI01
I616
stp466
Rp467
sg25
I2
sg26
F799831.0
sbs(g9
S'hasFavorite'
p468
tp469
g0
(g14
g2
Ntp470
Rp471
(dp472
g18
F0.5
sg19
I799830
sg20
g21
((dp473
I00
I798435
sI01
I1395
stp474
Rp475
sg25
I2
sg26
F799831.0
sbs(g8
g288
tp476
g0
(g14
g2
Ntp477
Rp478
(dp479
g18
F0.5
sg19
I799914
sg20
g21
((dp480
I00
I799736
sI01
I178
stp481
Rp482
sg25
I2
sg26
F799915.0
sbs(g9
g186
tp483
g0
(g14
g2
Ntp484
Rp485
(dp486
g18
F0.5
sg19
I799830
sg20
g21
((dp487
I00
I788326
sI01
I11504
stp488
Rp489
sg25
I2
sg26
F799831.0
sbs(g9
g319
tp490
g0
(g14
g2
Ntp491
Rp492
(dp493
g18
F0.5
sg19
I799830
sg20
g21
((dp494
I00
I797984
sI01
I1846
stp495
Rp496
sg25
I2
sg26
F799831.0
sbs(g9
S'hasGreat'
p497
tp498
g0
(g14
g2
Ntp499
Rp500
(dp501
g18
F0.5
sg19
I799830
sg20
g21
((dp502
I00
I791229
sI01
I8601
stp503
Rp504
sg25
I2
sg26
F799831.0
sbs(g8
S'hasGood'
p505
tp506
g0
(g14
g2
Ntp507
Rp508
(dp509
g18
F0.5
sg19
I799914
sg20
g21
((dp510
I00
I738100
sI01
I61814
stp511
Rp512
sg25
I2
sg26
F799915.0
sbs(g9
S'hasFuck'
p513
tp514
g0
(g14
g2
Ntp515
Rp516
(dp517
g18
F0.5
sg19
I799830
sg20
g21
((dp518
I00
I791821
sI01
I8009
stp519
Rp520
sg25
I2
sg26
F799831.0
sbs(g9
S'hasRocks'
p521
tp522
g0
(g14
g2
Ntp523
Rp524
(dp525
g18
F0.5
sg19
I799830
sg20
g21
((dp526
I00
I799619
sI01
I211
stp527
Rp528
sg25
I2
sg26
F799831.0
sbs(g8
g378
tp529
g0
(g14
g2
Ntp530
Rp531
(dp532
g18
F0.5
sg19
I799914
sg20
g21
((dp533
I00
I516915
sI01
I282999
stp534
Rp535
sg25
I2
sg26
F799915.0
sbs(g8
g386
tp536
g0
(g14
g2
Ntp537
Rp538
(dp539
g18
F0.5
sg19
I799914
sg20
g21
((dp540
I00
I765575
sI01
I34339
stp541
Rp542
sg25
I2
sg26
F799915.0
sbs(g9
g304
tp543
g0
(g14
g2
Ntp544
Rp545
(dp546
g18
F0.5
sg19
I799830
sg20
g21
((dp547
I00
I799729
sI01
I101
stp548
Rp549
sg25
I2
sg26
F799831.0
sbs(g9
S'hasDont'
p550
tp551
g0
(g14
g2
Ntp552
Rp553
(dp554
g18
F0.5
sg19
I799830
sg20
g21
((dp555
I00
I749755
sI01
I50075
stp556
Rp557
sg25
I2
sg26
F799831.0
sbs(g9
S'hasHeart'
p558
tp559
g0
(g14
g2
Ntp560
Rp561
(dp562
g18
F0.5
sg19
I799830
sg20
g21
((dp563
I00
I796729
sI01
I3101
stp564
Rp565
sg25
I2
sg26
F799831.0
sbs(g8
S'hasImprove'
p566
tp567
g0
(g14
g2
Ntp568
Rp569
(dp570
g18
F0.5
sg19
I799914
sg20
g21
((dp571
I00
I799535
sI01
I379
stp572
Rp573
sg25
I2
sg26
F799915.0
sbs(g8
g416
tp574
g0
(g14
g2
Ntp575
Rp576
(dp577
g18
F0.5
sg19
I799914
sg20
g21
((dp578
I00
I765421
sI01
I34493
stp579
Rp580
sg25
I2
sg26
F799915.0
sbs(g9
g341
tp581
g0
(g14
g2
Ntp582
Rp583
(dp584
g18
F0.5
sg19
I799830
sg20
g21
((dp585
I00
I755742
sI01
I44088
stp586
Rp587
sg25
I2
sg26
F799831.0
sbs(g9
S'hasFast'
p588
tp589
g0
(g14
g2
Ntp590
Rp591
(dp592
g18
F0.5
sg19
I799830
sg20
g21
((dp593
I00
I795684
sI01
I4146
stp594
Rp595
sg25
I2
sg26
F799831.0
sbs(g8
g452
tp596
g0
(g14
g2
Ntp597
Rp598
(dp599
g18
F0.5
sg19
I799914
sg20
g21
((dp600
I00
I798472
sI01
I1442
stp601
Rp602
sg25
I2
sg26
F799915.0
sbs(g9
S'hasNew'
p603
tp604
g0
(g14
g2
Ntp605
Rp606
(dp607
g18
F0.5
sg19
I799830
sg20
g21
((dp608
I00
I785208
sI01
I14622
stp609
Rp610
sg25
I2
sg26
F799831.0
sbs(g8
S'hasCant'
p611
tp612
g0
(g14
g2
Ntp613
Rp614
(dp615
g18
F0.5
sg19
I799914
sg20
g21
((dp616
I00
I781440
sI01
I18474
stp617
Rp618
sg25
I2
sg26
F799915.0
sbs(g8
g460
tp619
g0
(g14
g2
Ntp620
Rp621
(dp622
g18
F0.5
sg19
I799914
sg20
g21
((dp623
I00
I798940
sI01
I974
stp624
Rp625
sg25
I2
sg26
F799915.0
sbs(g9
S'hasConfident'
p626
tp627
g0
(g14
g2
Ntp628
Rp629
(dp630
g18
F0.5
sg19
I799830
sg20
g21
((dp631
I00
I799745
sI01
I85
stp632
Rp633
sg25
I2
sg26
F799831.0
sbs(g9
S'hasSmile'
p634
tp635
g0
(g14
g2
Ntp636
Rp637
(dp638
g18
F0.5
sg19
I799830
sg20
g21
((dp639
I00
I799003
sI01
I827
stp640
Rp641
sg25
I2
sg26
F799831.0
sbs(g9
S'hasWin'
p642
tp643
g0
(g14
g2
Ntp644
Rp645
(dp646
g18
F0.5
sg19
I799830
sg20
g21
((dp647
I00
I796831
sI01
I2999
stp648
Rp649
sg25
I2
sg26
F799831.0
sbs(g9
g170
tp650
g0
(g14
g2
Ntp651
Rp652
(dp653
g18
F0.5
sg19
I799830
sg20
g21
((dp654
I00
I795741
sI01
I4089
stp655
Rp656
sg25
I2
sg26
F799831.0
sbs(g8
g218
tp657
g0
(g14
g2
Ntp658
Rp659
(dp660
g18
F0.5
sg19
I799914
sg20
g21
((dp661
I00
I799678
sI01
I236
stp662
Rp663
sg25
I2
sg26
F799915.0
sbs(g8
g497
tp664
g0
(g14
g2
Ntp665
Rp666
(dp667
g18
F0.5
sg19
I799914
sg20
g21
((dp668
I00
I774407
sI01
I25507
stp669
Rp670
sg25
I2
sg26
F799915.0
sbs(g8
g280
tp671
g0
(g14
g2
Ntp672
Rp673
(dp674
g18
F0.5
sg19
I799914
sg20
g21
((dp675
I00
I799506
sI01
I408
stp676
Rp677
sg25
I2
sg26
F799915.0
sbs(g9
S'hasSweet'
p678
tp679
g0
(g14
g2
Ntp680
Rp681
(dp682
g18
F0.5
sg19
I799830
sg20
g21
((dp683
I00
I796649
sI01
I3181
stp684
Rp685
sg25
I2
sg26
F799831.0
sbs(g8
g468
tp686
g0
(g14
g2
Ntp687
Rp688
(dp689
g18
F0.5
sg19
I799914
sg20
g21
((dp690
I00
I796816
sI01
I3098
stp691
Rp692
sg25
I2
sg26
F799915.0
sbs(g8
S'hasHappy'
p693
tp694
g0
(g14
g2
Ntp695
Rp696
(dp697
g18
F0.5
sg19
I799914
sg20
g21
((dp698
I00
I778564
sI01
I21350
stp699
Rp700
sg25
I2
sg26
F799915.0
sbs(g9
S'hasHaha'
p701
tp702
g0
(g14
g2
Ntp703
Rp704
(dp705
g18
F0.5
sg19
I799830
sg20
g21
((dp706
I00
I785912
sI01
I13918
stp707
Rp708
sg25
I2
sg26
F799831.0
sbs(g8
g550
tp709
g0
(g14
g2
Ntp710
Rp711
(dp712
g18
F0.5
sg19
I799914
sg20
g21
((dp713
I00
I776637
sI01
I23277
stp714
Rp715
sg25
I2
sg26
F799915.0
sbs(g8
g626
tp716
g0
(g14
g2
Ntp717
Rp718
(dp719
g18
F0.5
sg19
I799914
sg20
g21
((dp720
I00
I799755
sI01
I159
stp721
Rp722
sg25
I2
sg26
F799915.0
sbs(g9
g210
tp723
g0
(g14
g2
Ntp724
Rp725
(dp726
g18
F0.5
sg19
I799830
sg20
g21
((dp727
I00
I795584
sI01
I4246
stp728
Rp729
sg25
I2
sg26
F799831.0
sbs(g9
g35
tp730
g0
(g14
g2
Ntp731
Rp732
(dp733
g18
F0.5
sg19
I799830
sg20
g21
((dp734
I00
I797816
sI01
I2014
stp735
Rp736
sg25
I2
sg26
F799831.0
sbs(g9
S'hasBad'
p737
tp738
g0
(g14
g2
Ntp739
Rp740
(dp741
g18
F0.5
sg19
I799830
sg20
g21
((dp742
I00
I779336
sI01
I20494
stp743
Rp744
sg25
I2
sg26
F799831.0
sbs(g9
g256
tp745
g0
(g14
g2
Ntp746
Rp747
(dp748
g18
F0.5
sg19
I799830
sg20
g21
((dp749
I00
I795116
sI01
I4714
stp750
Rp751
sg25
I2
sg26
F799831.0
sbs(g9
g505
tp752
g0
(g14
g2
Ntp753
Rp754
(dp755
g18
F0.5
sg19
I799830
sg20
g21
((dp756
I00
I774125
sI01
I25705
stp757
Rp758
sg25
I2
sg26
F799831.0
sbs(g8
S'hasAche'
p759
tp760
g0
(g14
g2
Ntp761
Rp762
(dp763
g18
F0.5
sg19
I799914
sg20
g21
((dp764
I00
I799799
sI01
I115
stp765
Rp766
sg25
I2
sg26
F799915.0
sbs(g8
g513
tp767
g0
(g14
g2
Ntp768
Rp769
(dp770
g18
F0.5
sg19
I799914
sg20
g21
((dp771
I00
I796488
sI01
I3426
stp772
Rp773
sg25
I2
sg26
F799915.0
sbs(g8
g67
tp774
g0
(g14
g2
Ntp775
Rp776
(dp777
g18
F0.5
sg19
I799914
sg20
g21
((dp778
I00
I799153
sI01
I761
stp779
Rp780
sg25
I2
sg26
F799915.0
sbs(g9
S'hasRidiculous'
p781
tp782
g0
(g14
g2
Ntp783
Rp784
(dp785
g18
F0.5
sg19
I799830
sg20
g21
((dp786
I00
I799262
sI01
I568
stp787
Rp788
sg25
I2
sg26
F799831.0
sbs(g8
g678
tp789
g0
(g14
g2
Ntp790
Rp791
(dp792
g18
F0.5
sg19
I799914
sg20
g21
((dp793
I00
I791588
sI01
I8326
stp794
Rp795
sg25
I2
sg26
F799915.0
sbs(g8
S'hasFail'
p796
tp797
g0
(g14
g2
Ntp798
Rp799
(dp800
g18
F0.5
sg19
I799914
sg20
g21
((dp801
I00
I798644
sI01
I1270
stp802
Rp803
sg25
I2
sg26
F799915.0
sbs(g8
g521
tp804
g0
(g14
g2
Ntp805
Rp806
(dp807
g18
F0.5
sg19
I799914
sg20
g21
((dp808
I00
I799174
sI01
I740
stp809
Rp810
sg25
I2
sg26
F799915.0
sbs(g8
g107
tp811
g0
(g14
g2
Ntp812
Rp813
(dp814
g18
F0.5
sg19
I799914
sg20
g21
((dp815
I00
I799302
sI01
I612
stp816
Rp817
sg25
I2
sg26
F799915.0
sbs(g8
g558
tp818
g0
(g14
g2
Ntp819
Rp820
(dp821
g18
F0.5
sg19
I799914
sg20
g21
((dp822
I00
I793293
sI01
I6621
stp823
Rp824
sg25
I2
sg26
F799915.0
sbs(g8
g27
tp825
g0
(g14
g2
Ntp826
Rp827
(dp828
g18
F0.5
sg19
I799914
sg20
g21
((dp829
I00
I799550
sI01
I364
stp830
Rp831
sg25
I2
sg26
F799915.0
sbs(g9
g566
tp832
g0
(g14
g2
Ntp833
Rp834
(dp835
g18
F0.5
sg19
I799830
sg20
g21
((dp836
I00
I799596
sI01
I234
stp837
Rp838
sg25
I2
sg26
F799831.0
sbs(g8
g634
tp839
g0
(g14
g2
Ntp840
Rp841
(dp842
g18
F0.5
sg19
I799914
sg20
g21
((dp843
I00
I796206
sI01
I3708
stp844
Rp845
sg25
I2
sg26
F799915.0
sbs(g8
g248
tp846
g0
(g14
g2
Ntp847
Rp848
(dp849
g18
F0.5
sg19
I799914
sg20
g21
((dp850
I00
I787564
sI01
I12350
stp851
Rp852
sg25
I2
sg26
F799915.0
sbs(g8
g588
tp853
g0
(g14
g2
Ntp854
Rp855
(dp856
g18
F0.5
sg19
I799914
sg20
g21
((dp857
I00
I794924
sI01
I4990
stp858
Rp859
sg25
I2
sg26
F799915.0
sbs(g9
g162
tp860
g0
(g14
g2
Ntp861
Rp862
(dp863
g18
F0.5
sg19
I799830
sg20
g21
((dp864
I00
I785461
sI01
I14369
stp865
Rp866
sg25
I2
sg26
F799831.0
sbs(g8
g99
tp867
g0
(g14
g2
Ntp868
Rp869
(dp870
g18
F0.5
sg19
I799914
sg20
g21
((dp871
I00
I797819
sI01
I2095
stp872
Rp873
sg25
I2
sg26
F799915.0
sbs(g9
g91
tp874
g0
(g14
g2
Ntp875
Rp876
(dp877
g18
F0.5
sg19
I799830
sg20
g21
((dp878
I00
I798000
sI01
I1830
stp879
Rp880
sg25
I2
sg26
F799831.0
sbs(g8
g603
tp881
g0
(g14
g2
Ntp882
Rp883
(dp884
g18
F0.5
sg19
I799914
sg20
g21
((dp885
I00
I774735
sI01
I25179
stp886
Rp887
sg25
I2
sg26
F799915.0
sbs(g9
g611
tp888
g0
(g14
g2
Ntp889
Rp890
(dp891
g18
F0.5
sg19
I799830
sg20
g21
((dp892
I00
I758178
sI01
I41652
stp893
Rp894
sg25
I2
sg26
F799831.0
sbs(g8
S'hasSuper'
p895
tp896
g0
(g14
g2
Ntp897
Rp898
(dp899
g18
F0.5
sg19
I799914
sg20
g21
((dp900
I00
I795126
sI01
I4788
stp901
Rp902
sg25
I2
sg26
F799915.0
sbs(g9
g202
tp903
g0
(g14
g2
Ntp904
Rp905
(dp906
g18
F0.5
sg19
I799830
sg20
g21
((dp907
I00
I797386
sI01
I2444
stp908
Rp909
sg25
I2
sg26
F799831.0
sbs(g8
g737
tp910
g0
(g14
g2
Ntp911
Rp912
(dp913
g18
F0.5
sg19
I799914
sg20
g21
((dp914
I00
I795496
sI01
I4418
stp915
Rp916
sg25
I2
sg26
F799915.0
sbs(g9
g895
tp917
g0
(g14
g2
Ntp918
Rp919
(dp920
g18
F0.5
sg19
I799830
sg20
g21
((dp921
I00
I795648
sI01
I4182
stp922
Rp923
sg25
I2
sg26
F799831.0
sbs(g9
g123
tp924
g0
(g14
g2
Ntp925
Rp926
(dp927
g18
F0.5
sg19
I799830
sg20
g21
((dp928
I00
I774701
sI01
I25129
stp929
Rp930
sg25
I2
sg26
F799831.0
sbs(g9
g759
tp931
g0
(g14
g2
Ntp932
Rp933
(dp934
g18
F0.5
sg19
I799830
sg20
g21
((dp935
I00
I798721
sI01
I1109
stp936
Rp937
sg25
I2
sg26
F799831.0
sbs(g8
g349
tp938
g0
(g14
g2
Ntp939
Rp940
(dp941
g18
F0.5
sg19
I799914
sg20
g21
((dp942
I00
I799482
sI01
I432
stp943
Rp944
sg25
I2
sg26
F799915.0
sbs(g8
g642
tp945
g0
(g14
g2
Ntp946
Rp947
(dp948
g18
F0.5
sg19
I799914
sg20
g21
((dp949
I00
I796051
sI01
I3863
stp950
Rp951
sg25
I2
sg26
F799915.0
sbs(g8
g408
tp952
g0
(g14
g2
Ntp953
Rp954
(dp955
g18
F0.5
sg19
I799914
sg20
g21
((dp956
I00
I793497
sI01
I6417
stp957
Rp958
sg25
I2
sg26
F799915.0
sbs(g8
g781
tp959
g0
(g14
g2
Ntp960
Rp961
(dp962
g18
F0.5
sg19
I799914
sg20
g21
((dp963
I00
I799599
sI01
I315
stp964
Rp965
sg25
I2
sg26
F799915.0
sbs(g9
g796
tp966
g0
(g14
g2
Ntp967
Rp968
(dp969
g18
F0.5
sg19
I799830
sg20
g21
((dp970
I00
I794242
sI01
I5588
stp971
Rp972
sg25
I2
sg26
F799831.0
sbs(g9
g693
tp973
g0
(g14
g2
Ntp974
Rp975
(dp976
g18
F0.5
sg19
I799830
sg20
g21
((dp977
I00
I792488
sI01
I7342
stp978
Rp979
sg25
I2
sg26
F799831.0
sbs(g8
g296
tp980
g0
(g14
g2
Ntp981
Rp982
(dp983
g18
F0.5
sg19
I799914
sg20
g21
((dp984
I00
I798762
sI01
I1152
stp985
Rp986
sg25
I2
sg26
F799915.0
sbs(g8
g701
tp987
g0
(g14
g2
Ntp988
Rp989
(dp990
g18
F0.5
sg19
I799914
sg20
g21
((dp991
I00
I768342
sI01
I31572
stp992
Rp993
sg25
I2
sg26
F799915.0
sbssS'_label_probdist'
p994
g0
(g14
g2
Ntp995
Rp996
(dp997
g18
F0.5
sg19
I1599744
sg20
g21
((dp998
g8
I799914
sg9
I799830
stp999
Rp1000
sg25
I2
sg26
F1599745.0
sbsb.