ccopy_reg
_reconstructor
p0
(cnltk.classify.naivebayes
NaiveBayesClassifier
p1
c__builtin__
object
p2
Ntp3
Rp4
(dp5
S'_labels'
p6
(lp7
S'positive'
p8
aS'negative'
p9
asS'_feature_probdist'
p10
(dp11
(g9
S'hasYes'
p12
tp13
g0
(cnltk.probability
ELEProbDist
p14
g2
Ntp15
Rp16
(dp17
S'_gamma'
p18
F0.5
sS'_N'
p19
I799830
sS'_freqdist'
p20
cnltk.probability
FreqDist
p21
((dp22
I00
I797027
sI01
I2803
stp23
Rp24
sS'_bins'
p25
I2
sS'_divisor'
p26
F799831.0
sbs(g9
S'hasIdiot'
p27
tp28
g0
(g14
g2
Ntp29
Rp30
(dp31
g18
F0.5
sg19
I799830
sg20
g21
((dp32
I00
I799294
sI01
I536
stp33
Rp34
sg25
I2
sg26
F799831.0
sbs(g8
S'hasFunny'
p35
tp36
g0
(g14
g2
Ntp37
Rp38
(dp39
g18
F0.5
sg19
I799914
sg20
g21
((dp40
I00
I795280
sI01
I4634
stp41
Rp42
sg25
I2
sg26
F799915.0
sbs(g9
S'hasPay'
p43
tp44
g0
(g14
g2
Ntp45
Rp46
(dp47
g18
F0.5
sg19
I799830
sg20
g21
((dp48
I00
I796960
sI01
I2870
stp49
Rp50
sg25
I2
sg26
F799831.0
sbs(g8
S'hasLol'
p51
tp52
g0
(g14
g2
Ntp53
Rp54
(dp55
g18
F0.5
sg19
I799914
sg20
g21
((dp56
I00
I776307
sI01
I23607
stp57
Rp58
sg25
I2
sg26
F799915.0
sbs(g9
S'hasHate'
p59
tp60
g0
(g14
g2
Ntp61
Rp62
(dp63
g18
F0.5
sg19
I799830
sg20
g21
((dp64
I00
I779582
sI01
I20248
stp65
Rp66
sg25
I2
sg26
F799831.0
sbs(g9
S'hasCheap'
p67
tp68
g0
(g14
g2
Ntp69
Rp70
(dp71
g18
F0.5
sg19
I799830
sg20
g21
((dp72
I00
I799148
sI01
I682
stp73
Rp74
sg25
I2
sg26
F799831.0
sbs(g8
S'hasSuck'
p75
tp76
g0
(g14
g2
Ntp77
Rp78
(dp79
g18
F0.5
sg19
I799914
sg20
g21
((dp80
I00
I797544
sI01
I2370
stp81
Rp82
sg25
I2
sg26
F799915.0
sbs(g8
S'hasAss'
p83
tp84
g0
(g14
g2
Ntp85
Rp86
(dp87
g18
F0.5
sg19
I799914
sg20
g21
((dp88
I00
I798424
sI01
I1490
stp89
Rp90
sg25
I2
sg26
F799915.0
sbs(g9
S'hasLoss'
p91
tp92
g0
(g14
g2
Ntp93
Rp94
(dp95
g18
F0.5
sg19
I799830
sg20
g21
((dp96
I00
I791298
sI01
I8532
stp97
Rp98
sg25
I2
sg26
F799831.0
sbs(g9
S'hasWtf'
p99
tp100
g0
(g14
g2
Ntp101
Rp102
(dp103
g18
F0.5
sg19
I799830
sg20
g21
((dp104
I00
I797470
sI01
I2360
stp105
Rp106
sg25
I2
sg26
F799831.0
sbs(g9
S'hasCurse'
p107
tp108
g0
(g14
g2
Ntp109
Rp110
(dp111
g18
F0.5
sg19
I799830
sg20
g21
((dp112
I00
I799462
sI01
I368
stp113
Rp114
sg25
I2
sg26
F799831.0
sbs(g8
S'hasLove'
p115
tp116
g0
(g14
g2
Ntp117
Rp118
(dp119
g18
F0.5
sg19
I799914
sg20
g21
((dp120
I00
I736715
sI01
I63199
stp121
Rp122
sg25
I2
sg26
F799915.0
sbs(g8
S'hasSad'
p123
tp124
g0
(g14
g2
Ntp125
Rp126
(dp127
g18
F0.5
sg19
I799914
sg20
g21
((dp128
I00
I797220
sI01
I2694
stp129
Rp130
sg25
I2
sg26
F799915.0
sbs(g9
g75
tp131
g0
(g14
g2
Ntp132
Rp133
(dp134
g18
F0.5
sg19
I799830
sg20
g21
((dp135
I00
I785464
sI01
I14366
stp136
Rp137
sg25
I2
sg26
F799831.0
sbs(g8
S'hasBest'
p138
tp139
g0
(g14
g2
Ntp140
Rp141
(dp142
g18
F0.5
sg19
I799914
sg20
g21
((dp143
I00
I787564
sI01
I12350
stp144
Rp145
sg25
I2
sg26
F799915.0
sbs(g9
S'hasFree'
p146
tp147
g0
(g14
g2
Ntp148
Rp149
(dp150
g18
F0.5
sg19
I799830
sg20
g21
((dp151
I00
I795012
sI01
I4818
stp152
Rp153
sg25
I2
sg26
F799831.0
sbs(g8
S'hasPlay'
p154
tp155
g0
(g14
g2
Ntp156
Rp157
(dp158
g18
F0.5
sg19
I799914
sg20
g21
((dp159
I00
I787374
sI01
I12540
stp160
Rp161
sg25
I2
sg26
F799915.0
sbs(g8
S'hasCold'
p162
tp163
g0
(g14
g2
Ntp164
Rp165
(dp166
g18
F0.5
sg19
I799914
sg20
g21
((dp167
I00
I796195
sI01
I3719
stp168
Rp169
sg25
I2
sg26
F799915.0
sbs(g8
S'hasWinky'
p170
tp171
g0
(g14
g2
Ntp172
Rp173
(dp174
g18
F0.5
sg19
I799914
sg20
g21
((dp175
I00
I795532
sI01
I4382
stp176
Rp177
sg25
I2
sg26
F799915.0
sbs(g8
S'hasFriend'
p178
tp179
g0
(g14
g2
Ntp180
Rp181
(dp182
g18
F0.5
sg19
I799914
sg20
g21
((dp183
I00
I795532
sI01
I4382
stp184
Rp185
sg25
I2
sg26
F799915.0
sbs(g8
g27
tp186
g0
(g14
g2
Ntp187
Rp188
(dp189
g18
F0.5
sg19
I799914
sg20
g21
((dp190
I00
I799550
sI01
I364
stp191
Rp192
sg25
I2
sg26
F799915.0
sbs(g9
g51
tp193
g0
(g14
g2
Ntp194
Rp195
(dp196
g18
F0.5
sg19
I799830
sg20
g21
((dp197
I00
I783489
sI01
I16341
stp198
Rp199
sg25
I2
sg26
F799831.0
sbs(g9
S'hasRepeats'
p200
tp201
g0
(g14
g2
Ntp202
Rp203
(dp204
g18
F0.5
sg19
I799830
sg20
g21
((dp205
I00
I564368
sI01
I235462
stp206
Rp207
sg25
I2
sg26
F799831.0
sbs(g8
S'hasCool'
p208
tp209
g0
(g14
g2
Ntp210
Rp211
(dp212
g18
F0.5
sg19
I799914
sg20
g21
((dp213
I00
I788195
sI01
I11719
stp214
Rp215
sg25
I2
sg26
F799915.0
sbs(g9
S'hasFantastic'
p216
tp217
g0
(g14
g2
Ntp218
Rp219
(dp220
g18
F0.5
sg19
I799830
sg20
g21
((dp221
I00
I799417
sI01
I413
stp222
Rp223
sg25
I2
sg26
F799831.0
sbs(g9
S'hasExpense'
p224
tp225
g0
(g14
g2
Ntp226
Rp227
(dp228
g18
F0.5
sg19
I799830
sg20
g21
((dp229
I00
I799081
sI01
I749
stp230
Rp231
sg25
I2
sg26
F799831.0
sbs(g9
S'hasSmell'
p232
tp233
g0
(g14
g2
Ntp234
Rp235
(dp236
g18
F0.5
sg19
I799830
sg20
g21
((dp237
I00
I798514
sI01
I1316
stp238
Rp239
sg25
I2
sg26
F799831.0
sbs(g8
S'hasFrowny'
p240
tp241
g0
(g14
g2
Ntp242
Rp243
(dp244
g18
F0.5
sg19
I799914
sg20
g21
((dp245
I00
I799798
sI01
I116
stp246
Rp247
sg25
I2
sg26
F799915.0
sbs(g8
g12
tp248
g0
(g14
g2
Ntp249
Rp250
(dp251
g18
F0.5
sg19
I799914
sg20
g21
((dp252
I00
I794180
sI01
I5734
stp253
Rp254
sg25
I2
sg26
F799915.0
sbs(g9
g123
tp255
g0
(g14
g2
Ntp256
Rp257
(dp258
g18
F0.5
sg19
I799830
sg20
g21
((dp259
I00
I768037
sI01
I31793
stp260
Rp261
sg25
I2
sg26
F799831.0
sbs(g8
g43
tp262
g0
(g14
g2
Ntp263
Rp264
(dp265
g18
F0.5
sg19
I799914
sg20
g21
((dp266
I00
I796304
sI01
I3610
stp267
Rp268
sg25
I2
sg26
F799915.0
sbs(g8
S'hasNo'
p269
tp270
g0
(g14
g2
Ntp271
Rp272
(dp273
g18
F0.5
sg19
I799914
sg20
g21
((dp274
I00
I782274
sI01
I17640
stp275
Rp276
sg25
I2
sg26
F799915.0
sbs(g8
g59
tp277
g0
(g14
g2
Ntp278
Rp279
(dp280
g18
F0.5
sg19
I799914
sg20
g21
((dp281
I00
I795138
sI01
I4776
stp282
Rp283
sg25
I2
sg26
F799915.0
sbs(g9
g162
tp284
g0
(g14
g2
Ntp285
Rp286
(dp287
g18
F0.5
sg19
I799830
sg20
g21
((dp288
I00
I795135
sI01
I4695
stp289
Rp290
sg25
I2
sg26
F799831.0
sbs(g9
S'hasExclamation'
p291
tp292
g0
(g14
g2
Ntp293
Rp294
(dp295
g18
F0.5
sg19
I799830
sg20
g21
((dp296
I00
I601514
sI01
I198316
stp297
Rp298
sg25
I2
sg26
F799831.0
sbs(g9
S'hasUgh'
p299
tp300
g0
(g14
g2
Ntp301
Rp302
(dp303
g18
F0.5
sg19
I799830
sg20
g21
((dp304
I00
I749355
sI01
I50475
stp305
Rp306
sg25
I2
sg26
F799831.0
sbs(g8
g107
tp307
g0
(g14
g2
Ntp308
Rp309
(dp310
g18
F0.5
sg19
I799914
sg20
g21
((dp311
I00
I799729
sI01
I185
stp312
Rp313
sg25
I2
sg26
F799915.0
sbs(g8
g200
tp314
g0
(g14
g2
Ntp315
Rp316
(dp317
g18
F0.5
sg19
I799914
sg20
g21
((dp318
I00
I589634
sI01
I210280
stp319
Rp320
sg25
I2
sg26
F799915.0
sbs(g9
S'hasGreat'
p321
tp322
g0
(g14
g2
Ntp323
Rp324
(dp325
g18
F0.5
sg19
I799830
sg20
g21
((dp326
I00
I791229
sI01
I8601
stp327
Rp328
sg25
I2
sg26
F799831.0
sbs(g8
g216
tp329
g0
(g14
g2
Ntp330
Rp331
(dp332
g18
F0.5
sg19
I799914
sg20
g21
((dp333
I00
I798315
sI01
I1599
stp334
Rp335
sg25
I2
sg26
F799915.0
sbs(g8
g146
tp336
g0
(g14
g2
Ntp337
Rp338
(dp339
g18
F0.5
sg19
I799914
sg20
g21
((dp340
I00
I793158
sI01
I6756
stp341
Rp342
sg25
I2
sg26
F799915.0
sbs(g9
S'hasHot'
p343
tp344
g0
(g14
g2
Ntp345
Rp346
(dp347
g18
F0.5
sg19
I799830
sg20
g21
((dp348
I00
I795004
sI01
I4826
stp349
Rp350
sg25
I2
sg26
F799831.0
sbs(g9
S'hasSmiley'
p351
tp352
g0
(g14
g2
Ntp353
Rp354
(dp355
g18
F0.5
sg19
I799830
sg20
g21
((dp356
I00
I799214
sI01
I616
stp357
Rp358
sg25
I2
sg26
F799831.0
sbs(g9
S'hasFavorite'
p359
tp360
g0
(g14
g2
Ntp361
Rp362
(dp363
g18
F0.5
sg19
I799830
sg20
g21
((dp364
I00
I798435
sI01
I1395
stp365
Rp366
sg25
I2
sg26
F799831.0
sbs(g8
g224
tp367
g0
(g14
g2
Ntp368
Rp369
(dp370
g18
F0.5
sg19
I799914
sg20
g21
((dp371
I00
I799736
sI01
I178
stp372
Rp373
sg25
I2
sg26
F799915.0
sbs(g9
g154
tp374
g0
(g14
g2
Ntp375
Rp376
(dp377
g18
F0.5
sg19
I799830
sg20
g21
((dp378
I00
I788326
sI01
I11504
stp379
Rp380
sg25
I2
sg26
F799831.0
sbs(g8
S'hasGood'
p381
tp382
g0
(g14
g2
Ntp383
Rp384
(dp385
g18
F0.5
sg19
I799914
sg20
g21
((dp386
I00
I738100
sI01
I61814
stp387
Rp388
sg25
I2
sg26
F799915.0
sbs(g9
S'hasFuck'
p389
tp390
g0
(g14
g2
Ntp391
Rp392
(dp393
g18
F0.5
sg19
I799830
sg20
g21
((dp394
I00
I791821
sI01
I8009
stp395
Rp396
sg25
I2
sg26
F799831.0
sbs(g8
g291
tp397
g0
(g14
g2
Ntp398
Rp399
(dp400
g18
F0.5
sg19
I799914
sg20
g21
((dp401
I00
I516915
sI01
I282999
stp402
Rp403
sg25
I2
sg26
F799915.0
sbs(g8
g299
tp404
g0
(g14
g2
Ntp405
Rp406
(dp407
g18
F0.5
sg19
I799914
sg20
g21
((dp408
I00
I765575
sI01
I34339
stp409
Rp410
sg25
I2
sg26
F799915.0
sbs(g9
g240
tp411
g0
(g14
g2
Ntp412
Rp413
(dp414
g18
F0.5
sg19
I799830
sg20
g21
((dp415
I00
I799729
sI01
I101
stp416
Rp417
sg25
I2
sg26
F799831.0
sbs(g9
S'hasDont'
p418
tp419
g0
(g14
g2
Ntp420
Rp421
(dp422
g18
F0.5
sg19
I799830
sg20
g21
((dp423
I00
I749755
sI01
I50075
stp424
Rp425
sg25
I2
sg26
F799831.0
sbs(g9
S'hasHeart'
p426
tp427
g0
(g14
g2
Ntp428
Rp429
(dp430
g18
F0.5
sg19
I799830
sg20
g21
((dp431
I00
I796729
sI01
I3101
stp432
Rp433
sg25
I2
sg26
F799831.0
sbs(g8
S'hasImprove'
p434
tp435
g0
(g14
g2
Ntp436
Rp437
(dp438
g18
F0.5
sg19
I799914
sg20
g21
((dp439
I00
I799535
sI01
I379
stp440
Rp441
sg25
I2
sg26
F799915.0
sbs(g9
g269
tp442
g0
(g14
g2
Ntp443
Rp444
(dp445
g18
F0.5
sg19
I799830
sg20
g21
((dp446
I00
I755742
sI01
I44088
stp447
Rp448
sg25
I2
sg26
F799831.0
sbs(g9
S'hasFast'
p449
tp450
g0
(g14
g2
Ntp451
Rp452
(dp453
g18
F0.5
sg19
I799830
sg20
g21
((dp454
I00
I795684
sI01
I4146
stp455
Rp456
sg25
I2
sg26
F799831.0
sbs(g8
g343
tp457
g0
(g14
g2
Ntp458
Rp459
(dp460
g18
F0.5
sg19
I799914
sg20
g21
((dp461
I00
I798472
sI01
I1442
stp462
Rp463
sg25
I2
sg26
F799915.0
sbs(g9
S'hasNew'
p464
tp465
g0
(g14
g2
Ntp466
Rp467
(dp468
g18
F0.5
sg19
I799830
sg20
g21
((dp469
I00
I785208
sI01
I14622
stp470
Rp471
sg25
I2
sg26
F799831.0
sbs(g8
S'hasCant'
p472
tp473
g0
(g14
g2
Ntp474
Rp475
(dp476
g18
F0.5
sg19
I799914
sg20
g21
((dp477
I00
I781440
sI01
I18474
stp478
Rp479
sg25
I2
sg26
F799915.0
sbs(g8
g351
tp480
g0
(g14
g2
Ntp481
Rp482
(dp483
g18
F0.5
sg19
I799914
sg20
g21
((dp484
I00
I798940
sI01
I974
stp485
Rp486
sg25
I2
sg26
F799915.0
sbs(g8
g321
tp487
g0
(g14
g2
Ntp488
Rp489
(dp490
g18
F0.5
sg19
I799914
sg20
g21
((dp491
I00
I774407
sI01
I25507
stp492
Rp493
sg25
I2
sg26
F799915.0
sbs(g8
S'hasWorst'
p494
tp495
g0
(g14
g2
Ntp496
Rp497
(dp498
g18
F0.5
sg19
I799914
sg20
g21
((dp499
I00
I799506
sI01
I408
stp500
Rp501
sg25
I2
sg26
F799915.0
sbs(g8
g359
tp502
g0
(g14
g2
Ntp503
Rp504
(dp505
g18
F0.5
sg19
I799914
sg20
g21
((dp506
I00
I796816
sI01
I3098
stp507
Rp508
sg25
I2
sg26
F799915.0
sbs(g8
S'hasHappy'
p509
tp510
g0
(g14
g2
Ntp511
Rp512
(dp513
g18
F0.5
sg19
I799914
sg20
g21
((dp514
I00
I775016
sI01
I24898
stp515
Rp516
sg25
I2
sg26
F799915.0
sbs(g9
S'hasHaha'
p517
tp518
g0
(g14
g2
Ntp519
Rp520
(dp521
g18
F0.5
sg19
I799830
sg20
g21
((dp522
I00
I785912
sI01
I13918
stp523
Rp524
sg25
I2
sg26
F799831.0
sbs(g8
g418
tp525
g0
(g14
g2
Ntp526
Rp527
(dp528
g18
F0.5
sg19
I799914
sg20
g21
((dp529
I00
I776637
sI01
I23277
stp530
Rp531
sg25
I2
sg26
F799915.0
sbs(g9
g178
tp532
g0
(g14
g2
Ntp533
Rp534
(dp535
g18
F0.5
sg19
I799830
sg20
g21
((dp536
I00
I795584
sI01
I4246
stp537
Rp538
sg25
I2
sg26
F799831.0
sbs(g9
g35
tp539
g0
(g14
g2
Ntp540
Rp541
(dp542
g18
F0.5
sg19
I799830
sg20
g21
((dp543
I00
I797816
sI01
I2014
stp544
Rp545
sg25
I2
sg26
F799831.0
sbs(g9
S'hasBad'
p546
tp547
g0
(g14
g2
Ntp548
Rp549
(dp550
g18
F0.5
sg19
I799830
sg20
g21
((dp551
I00
I779336
sI01
I20494
stp552
Rp553
sg25
I2
sg26
F799831.0
sbs(g9
g381
tp554
g0
(g14
g2
Ntp555
Rp556
(dp557
g18
F0.5
sg19
I799830
sg20
g21
((dp558
I00
I774125
sI01
I25705
stp559
Rp560
sg25
I2
sg26
F799831.0
sbs(g8
S'hasAche'
p561
tp562
g0
(g14
g2
Ntp563
Rp564
(dp565
g18
F0.5
sg19
I799914
sg20
g21
((dp566
I00
I799799
sI01
I115
stp567
Rp568
sg25
I2
sg26
F799915.0
sbs(g8
g389
tp569
g0
(g14
g2
Ntp570
Rp571
(dp572
g18
F0.5
sg19
I799914
sg20
g21
((dp573
I00
I796488
sI01
I3426
stp574
Rp575
sg25
I2
sg26
F799915.0
sbs(g8
g67
tp576
g0
(g14
g2
Ntp577
Rp578
(dp579
g18
F0.5
sg19
I799914
sg20
g21
((dp580
I00
I799153
sI01
I761
stp581
Rp582
sg25
I2
sg26
F799915.0
sbs(g9
S'hasSweet'
p583
tp584
g0
(g14
g2
Ntp585
Rp586
(dp587
g18
F0.5
sg19
I799830
sg20
g21
((dp588
I00
I796649
sI01
I3181
stp589
Rp590
sg25
I2
sg26
F799831.0
sbs(g8
S'hasFail'
p591
tp592
g0
(g14
g2
Ntp593
Rp594
(dp595
g18
F0.5
sg19
I799914
sg20
g21
((dp596
I00
I798644
sI01
I1270
stp597
Rp598
sg25
I2
sg26
F799915.0
sbs(g8
g91
tp599
g0
(g14
g2
Ntp600
Rp601
(dp602
g18
F0.5
sg19
I799914
sg20
g21
((dp603
I00
I798281
sI01
I1633
stp604
Rp605
sg25
I2
sg26
F799915.0
sbs(g8
g99
tp606
g0
(g14
g2
Ntp607
Rp608
(dp609
g18
F0.5
sg19
I799914
sg20
g21
((dp610
I00
I799302
sI01
I612
stp611
Rp612
sg25
I2
sg26
F799915.0
sbs(g8
g426
tp613
g0
(g14
g2
Ntp614
Rp615
(dp616
g18
F0.5
sg19
I799914
sg20
g21
((dp617
I00
I793293
sI01
I6621
stp618
Rp619
sg25
I2
sg26
F799915.0
sbs(g9
g434
tp620
g0
(g14
g2
Ntp621
Rp622
(dp623
g18
F0.5
sg19
I799830
sg20
g21
((dp624
I00
I799596
sI01
I234
stp625
Rp626
sg25
I2
sg26
F799831.0
sbs(g8
g449
tp627
g0
(g14
g2
Ntp628
Rp629
(dp630
g18
F0.5
sg19
I799914
sg20
g21
((dp631
I00
I794924
sI01
I4990
stp632
Rp633
sg25
I2
sg26
F799915.0
sbs(g9
g138
tp634
g0
(g14
g2
Ntp635
Rp636
(dp637
g18
F0.5
sg19
I799830
sg20
g21
((dp638
I00
I793708
sI01
I6122
stp639
Rp640
sg25
I2
sg26
F799831.0
sbs(g9
g494
tp641
g0
(g14
g2
Ntp642
Rp643
(dp644
g18
F0.5
sg19
I799830
sg20
g21
((dp645
I00
I797072
sI01
I2758
stp646
Rp647
sg25
I2
sg26
F799831.0
sbs(g9
g83
tp648
g0
(g14
g2
Ntp649
Rp650
(dp651
g18
F0.5
sg19
I799830
sg20
g21
((dp652
I00
I798000
sI01
I1830
stp653
Rp654
sg25
I2
sg26
F799831.0
sbs(g8
g464
tp655
g0
(g14
g2
Ntp656
Rp657
(dp658
g18
F0.5
sg19
I799914
sg20
g21
((dp659
I00
I774735
sI01
I25179
stp660
Rp661
sg25
I2
sg26
F799915.0
sbs(g9
g472
tp662
g0
(g14
g2
Ntp663
Rp664
(dp665
g18
F0.5
sg19
I799830
sg20
g21
((dp666
I00
I758178
sI01
I41652
stp667
Rp668
sg25
I2
sg26
F799831.0
sbs(g9
g170
tp669
g0
(g14
g2
Ntp670
Rp671
(dp672
g18
F0.5
sg19
I799830
sg20
g21
((dp673
I00
I797386
sI01
I2444
stp674
Rp675
sg25
I2
sg26
F799831.0
sbs(g8
g546
tp676
g0
(g14
g2
Ntp677
Rp678
(dp679
g18
F0.5
sg19
I799914
sg20
g21
((dp680
I00
I795496
sI01
I4418
stp681
Rp682
sg25
I2
sg26
F799915.0
sbs(g9
g115
tp683
g0
(g14
g2
Ntp684
Rp685
(dp686
g18
F0.5
sg19
I799830
sg20
g21
((dp687
I00
I774701
sI01
I25129
stp688
Rp689
sg25
I2
sg26
F799831.0
sbs(g9
g561
tp690
g0
(g14
g2
Ntp691
Rp692
(dp693
g18
F0.5
sg19
I799830
sg20
g21
((dp694
I00
I798721
sI01
I1109
stp695
Rp696
sg25
I2
sg26
F799831.0
sbs(g9
g208
tp697
g0
(g14
g2
Ntp698
Rp699
(dp700
g18
F0.5
sg19
I799830
sg20
g21
((dp701
I00
I795116
sI01
I4714
stp702
Rp703
sg25
I2
sg26
F799831.0
sbs(g8
g583
tp704
g0
(g14
g2
Ntp705
Rp706
(dp707
g18
F0.5
sg19
I799914
sg20
g21
((dp708
I00
I791588
sI01
I8326
stp709
Rp710
sg25
I2
sg26
F799915.0
sbs(g9
g591
tp711
g0
(g14
g2
Ntp712
Rp713
(dp714
g18
F0.5
sg19
I799830
sg20
g21
((dp715
I00
I794242
sI01
I5588
stp716
Rp717
sg25
I2
sg26
F799831.0
sbs(g9
g509
tp718
g0
(g14
g2
Ntp719
Rp720
(dp721
g18
F0.5
sg19
I799830
sg20
g21
((dp722
I00
I785018
sI01
I14812
stp723
Rp724
sg25
I2
sg26
F799831.0
sbs(g8
g232
tp725
g0
(g14
g2
Ntp726
Rp727
(dp728
g18
F0.5
sg19
I799914
sg20
g21
((dp729
I00
I798762
sI01
I1152
stp730
Rp731
sg25
I2
sg26
F799915.0
sbs(g8
g517
tp732
g0
(g14
g2
Ntp733
Rp734
(dp735
g18
F0.5
sg19
I799914
sg20
g21
((dp736
I00
I768342
sI01
I31572
stp737
Rp738
sg25
I2
sg26
F799915.0
sbssS'_label_probdist'
p739
g0
(g14
g2
Ntp740
Rp741
(dp742
g18
F0.5
sg19
I1599744
sg20
g21
((dp743
g8
I799914
sg9
I799830
stp744
Rp745
sg25
I2
sg26
F1599745.0
sbsb.