ccopy_reg
_reconstructor
p0
(cnltk.classify.naivebayes
NaiveBayesClassifier
p1
c__builtin__
object
p2
Ntp3
Rp4
(dp5
S'_labels'
p6
(lp7
S'positive'
p8
aS'negative'
p9
asS'_feature_probdist'
p10
(dp11
(g9
S'hasYes'
p12
tp13
g0
(cnltk.probability
ELEProbDist
p14
g2
Ntp15
Rp16
(dp17
S'_gamma'
p18
F0.5
sS'_N'
p19
I799830
sS'_freqdist'
p20
cnltk.probability
FreqDist
p21
((dp22
I00
I797027
sI01
I2803
stp23
Rp24
sS'_bins'
p25
I2
sS'_divisor'
p26
F799831.0
sbs(g9
S'hasIdiot'
p27
tp28
g0
(g14
g2
Ntp29
Rp30
(dp31
g18
F0.5
sg19
I799830
sg20
g21
((dp32
I00
I799294
sI01
I536
stp33
Rp34
sg25
I2
sg26
F799831.0
sbs(g8
S'hasFunny'
p35
tp36
g0
(g14
g2
Ntp37
Rp38
(dp39
g18
F0.5
sg19
I799914
sg20
g21
((dp40
I00
I795280
sI01
I4634
stp41
Rp42
sg25
I2
sg26
F799915.0
sbs(g8
S'hasDisgusting'
p43
tp44
g0
(g14
g2
Ntp45
Rp46
(dp47
g18
F0.5
sg19
I799914
sg20
g21
((dp48
I00
I742123
sI01
I57791
stp49
Rp50
sg25
I2
sg26
F799915.0
sbs(g9
S'hasPay'
p51
tp52
g0
(g14
g2
Ntp53
Rp54
(dp55
g18
F0.5
sg19
I799830
sg20
g21
((dp56
I00
I796960
sI01
I2870
stp57
Rp58
sg25
I2
sg26
F799831.0
sbs(g9
S'hasDislike'
p59
tp60
g0
(g14
g2
Ntp61
Rp62
(dp63
g18
F0.5
sg19
I799830
sg20
g21
((dp64
I00
I799583
sI01
I247
stp65
Rp66
sg25
I2
sg26
F799831.0
sbs(g9
S'hasHate'
p67
tp68
g0
(g14
g2
Ntp69
Rp70
(dp71
g18
F0.5
sg19
I799830
sg20
g21
((dp72
I00
I779079
sI01
I20751
stp73
Rp74
sg25
I2
sg26
F799831.0
sbs(g9
S'hasCheap'
p75
tp76
g0
(g14
g2
Ntp77
Rp78
(dp79
g18
F0.5
sg19
I799830
sg20
g21
((dp80
I00
I799148
sI01
I682
stp81
Rp82
sg25
I2
sg26
F799831.0
sbs(g9
S'hasHurt'
p83
tp84
g0
(g14
g2
Ntp85
Rp86
(dp87
g18
F0.5
sg19
I799830
sg20
g21
((dp88
I00
I786988
sI01
I12842
stp89
Rp90
sg25
I2
sg26
F799831.0
sbs(g9
S'hasIgnorant'
p91
tp92
g0
(g14
g2
Ntp93
Rp94
(dp95
g18
F0.5
sg19
I799830
sg20
g21
((dp96
I00
I799781
sI01
I49
stp97
Rp98
sg25
I2
sg26
F799831.0
sbs(g9
S'hasUnfair'
p99
tp100
g0
(g14
g2
Ntp101
Rp102
(dp103
g18
F0.5
sg19
I799830
sg20
g21
((dp104
I00
I799377
sI01
I453
stp105
Rp106
sg25
I2
sg26
F799831.0
sbs(g9
S'hasUnwise'
p107
tp108
g0
(g14
g2
Ntp109
Rp110
(dp111
g18
F0.5
sg19
I799830
sg20
g21
((dp112
I00
I799827
sI01
I3
stp113
Rp114
sg25
I2
sg26
F799831.0
sbs(g8
S'hasSuck'
p115
tp116
g0
(g14
g2
Ntp117
Rp118
(dp119
g18
F0.5
sg19
I799914
sg20
g21
((dp120
I00
I797544
sI01
I2370
stp121
Rp122
sg25
I2
sg26
F799915.0
sbs(g8
S'hasAss'
p123
tp124
g0
(g14
g2
Ntp125
Rp126
(dp127
g18
F0.5
sg19
I799914
sg20
g21
((dp128
I00
I798424
sI01
I1490
stp129
Rp130
sg25
I2
sg26
F799915.0
sbs(g9
S'hasUpset'
p131
tp132
g0
(g14
g2
Ntp133
Rp134
(dp135
g18
F0.5
sg19
I799830
sg20
g21
((dp136
I00
I797038
sI01
I2792
stp137
Rp138
sg25
I2
sg26
F799831.0
sbs(g9
S'hasLoss'
p139
tp140
g0
(g14
g2
Ntp141
Rp142
(dp143
g18
F0.5
sg19
I799830
sg20
g21
((dp144
I00
I790072
sI01
I9758
stp145
Rp146
sg25
I2
sg26
F799831.0
sbs(g8
S'hasHorrible'
p147
tp148
g0
(g14
g2
Ntp149
Rp150
(dp151
g18
F0.5
sg19
I799914
sg20
g21
((dp152
I00
I799291
sI01
I623
stp153
Rp154
sg25
I2
sg26
F799915.0
sbs(g9
S'hasWtf'
p155
tp156
g0
(g14
g2
Ntp157
Rp158
(dp159
g18
F0.5
sg19
I799830
sg20
g21
((dp160
I00
I797470
sI01
I2360
stp161
Rp162
sg25
I2
sg26
F799831.0
sbs(g9
S'hasCurse'
p163
tp164
g0
(g14
g2
Ntp165
Rp166
(dp167
g18
F0.5
sg19
I799830
sg20
g21
((dp168
I00
I799462
sI01
I368
stp169
Rp170
sg25
I2
sg26
F799831.0
sbs(g8
S'hasLove'
p171
tp172
g0
(g14
g2
Ntp173
Rp174
(dp175
g18
F0.5
sg19
I799914
sg20
g21
((dp176
I00
I736715
sI01
I63199
stp177
Rp178
sg25
I2
sg26
F799915.0
sbs(g8
S'hasSad'
p179
tp180
g0
(g14
g2
Ntp181
Rp182
(dp183
g18
F0.5
sg19
I799914
sg20
g21
((dp184
I00
I797220
sI01
I2694
stp185
Rp186
sg25
I2
sg26
F799915.0
sbs(g8
S'hasGreat'
p187
tp188
g0
(g14
g2
Ntp189
Rp190
(dp191
g18
F0.5
sg19
I799914
sg20
g21
((dp192
I00
I774407
sI01
I25507
stp193
Rp194
sg25
I2
sg26
F799915.0
sbs(g8
S'hasDreadful'
p195
tp196
g0
(g14
g2
Ntp197
Rp198
(dp199
g18
F0.5
sg19
I799914
sg20
g21
((dp200
I00
I799888
sI01
I26
stp201
Rp202
sg25
I2
sg26
F799915.0
sbs(g8
S'hasLol'
p203
tp204
g0
(g14
g2
Ntp205
Rp206
(dp207
g18
F0.5
sg19
I799914
sg20
g21
((dp208
I00
I776307
sI01
I23607
stp209
Rp210
sg25
I2
sg26
F799915.0
sbs(g9
g115
tp211
g0
(g14
g2
Ntp212
Rp213
(dp214
g18
F0.5
sg19
I799830
sg20
g21
((dp215
I00
I785464
sI01
I14366
stp216
Rp217
sg25
I2
sg26
F799831.0
sbs(g8
S'hasFun'
p218
tp219
g0
(g14
g2
Ntp220
Rp221
(dp222
g18
F0.5
sg19
I799914
sg20
g21
((dp223
I00
I774385
sI01
I25529
stp224
Rp225
sg25
I2
sg26
F799915.0
sbs(g8
S'hasAwesome'
p226
tp227
g0
(g14
g2
Ntp228
Rp229
(dp230
g18
F0.5
sg19
I799914
sg20
g21
((dp231
I00
I784917
sI01
I14997
stp232
Rp233
sg25
I2
sg26
F799915.0
sbs(g9
S'hasFree'
p234
tp235
g0
(g14
g2
Ntp236
Rp237
(dp238
g18
F0.5
sg19
I799830
sg20
g21
((dp239
I00
I795012
sI01
I4818
stp240
Rp241
sg25
I2
sg26
F799831.0
sbs(g8
S'hasDirty'
p242
tp243
g0
(g14
g2
Ntp244
Rp245
(dp246
g18
F0.5
sg19
I799914
sg20
g21
((dp247
I00
I799367
sI01
I547
stp248
Rp249
sg25
I2
sg26
F799915.0
sbs(g8
S'hasCold'
p250
tp251
g0
(g14
g2
Ntp252
Rp253
(dp254
g18
F0.5
sg19
I799914
sg20
g21
((dp255
I00
I796195
sI01
I3719
stp256
Rp257
sg25
I2
sg26
F799915.0
sbs(g8
S'hasWinky'
p258
tp259
g0
(g14
g2
Ntp260
Rp261
(dp262
g18
F0.5
sg19
I799914
sg20
g21
((dp263
I00
I795532
sI01
I4382
stp264
Rp265
sg25
I2
sg26
F799915.0
sbs(g8
S'hasPlay'
p266
tp267
g0
(g14
g2
Ntp268
Rp269
(dp270
g18
F0.5
sg19
I799914
sg20
g21
((dp271
I00
I787374
sI01
I12540
stp272
Rp273
sg25
I2
sg26
F799915.0
sbs(g9
S'hasOpportunity'
p274
tp275
g0
(g14
g2
Ntp276
Rp277
(dp278
g18
F0.5
sg19
I799830
sg20
g21
((dp279
I00
I799676
sI01
I154
stp280
Rp281
sg25
I2
sg26
F799831.0
sbs(g9
g43
tp282
g0
(g14
g2
Ntp283
Rp284
(dp285
g18
F0.5
sg19
I799830
sg20
g21
((dp286
I00
I752712
sI01
I47118
stp287
Rp288
sg25
I2
sg26
F799831.0
sbs(g9
g203
tp289
g0
(g14
g2
Ntp290
Rp291
(dp292
g18
F0.5
sg19
I799830
sg20
g21
((dp293
I00
I783489
sI01
I16341
stp294
Rp295
sg25
I2
sg26
F799831.0
sbs(g9
S'hasRepeats'
p296
tp297
g0
(g14
g2
Ntp298
Rp299
(dp300
g18
F0.5
sg19
I799830
sg20
g21
((dp301
I00
I564368
sI01
I235462
stp302
Rp303
sg25
I2
sg26
F799831.0
sbs(g8
g59
tp304
g0
(g14
g2
Ntp305
Rp306
(dp307
g18
F0.5
sg19
I799914
sg20
g21
((dp308
I00
I799855
sI01
I59
stp309
Rp310
sg25
I2
sg26
F799915.0
sbs(g9
S'hasBest'
p311
tp312
g0
(g14
g2
Ntp313
Rp314
(dp315
g18
F0.5
sg19
I799830
sg20
g21
((dp316
I00
I793708
sI01
I6122
stp317
Rp318
sg25
I2
sg26
F799831.0
sbs(g8
S'hasCool'
p319
tp320
g0
(g14
g2
Ntp321
Rp322
(dp323
g18
F0.5
sg19
I799914
sg20
g21
((dp324
I00
I788195
sI01
I11719
stp325
Rp326
sg25
I2
sg26
F799915.0
sbs(g8
g91
tp327
g0
(g14
g2
Ntp328
Rp329
(dp330
g18
F0.5
sg19
I799914
sg20
g21
((dp331
I00
I799868
sI01
I46
stp332
Rp333
sg25
I2
sg26
F799915.0
sbs(g8
S'hasThanks'
p334
tp335
g0
(g14
g2
Ntp336
Rp337
(dp338
g18
F0.5
sg19
I799914
sg20
g21
((dp339
I00
I774018
sI01
I25896
stp340
Rp341
sg25
I2
sg26
F799915.0
sbs(g9
S'hasFantastic'
p342
tp343
g0
(g14
g2
Ntp344
Rp345
(dp346
g18
F0.5
sg19
I799830
sg20
g21
((dp347
I00
I799417
sI01
I413
stp348
Rp349
sg25
I2
sg26
F799831.0
sbs(g9
S'hasWorst'
p350
tp351
g0
(g14
g2
Ntp352
Rp353
(dp354
g18
F0.5
sg19
I799830
sg20
g21
((dp355
I00
I797072
sI01
I2758
stp356
Rp357
sg25
I2
sg26
F799831.0
sbs(g9
S'hasExpense'
p358
tp359
g0
(g14
g2
Ntp360
Rp361
(dp362
g18
F0.5
sg19
I799830
sg20
g21
((dp363
I00
I799081
sI01
I749
stp364
Rp365
sg25
I2
sg26
F799831.0
sbs(g9
S'hasSmell'
p366
tp367
g0
(g14
g2
Ntp368
Rp369
(dp370
g18
F0.5
sg19
I799830
sg20
g21
((dp371
I00
I798514
sI01
I1316
stp372
Rp373
sg25
I2
sg26
F799831.0
sbs(g8
S'hasFrowny'
p374
tp375
g0
(g14
g2
Ntp376
Rp377
(dp378
g18
F0.5
sg19
I799914
sg20
g21
((dp379
I00
I799798
sI01
I116
stp380
Rp381
sg25
I2
sg26
F799915.0
sbs(g8
g12
tp382
g0
(g14
g2
Ntp383
Rp384
(dp385
g18
F0.5
sg19
I799914
sg20
g21
((dp386
I00
I794180
sI01
I5734
stp387
Rp388
sg25
I2
sg26
F799915.0
sbs(g8
S'hasSave'
p389
tp390
g0
(g14
g2
Ntp391
Rp392
(dp393
g18
F0.5
sg19
I799914
sg20
g21
((dp394
I00
I798189
sI01
I1725
stp395
Rp396
sg25
I2
sg26
F799915.0
sbs(g9
S'hasCruel'
p397
tp398
g0
(g14
g2
Ntp399
Rp400
(dp401
g18
F0.5
sg19
I799830
sg20
g21
((dp402
I00
I799514
sI01
I316
stp403
Rp404
sg25
I2
sg26
F799831.0
sbs(g9
g179
tp405
g0
(g14
g2
Ntp406
Rp407
(dp408
g18
F0.5
sg19
I799830
sg20
g21
((dp409
I00
I768037
sI01
I31793
stp410
Rp411
sg25
I2
sg26
F799831.0
sbs(g8
g51
tp412
g0
(g14
g2
Ntp413
Rp414
(dp415
g18
F0.5
sg19
I799914
sg20
g21
((dp416
I00
I796304
sI01
I3610
stp417
Rp418
sg25
I2
sg26
F799915.0
sbs(g8
S'hasNo'
p419
tp420
g0
(g14
g2
Ntp421
Rp422
(dp423
g18
F0.5
sg19
I799914
sg20
g21
((dp424
I00
I782274
sI01
I17640
stp425
Rp426
sg25
I2
sg26
F799915.0
sbs(g9
S'hasDepressing'
p427
tp428
g0
(g14
g2
Ntp429
Rp430
(dp431
g18
F0.5
sg19
I799830
sg20
g21
((dp432
I00
I798656
sI01
I1174
stp433
Rp434
sg25
I2
sg26
F799831.0
sbs(g9
S'hasScary'
p435
tp436
g0
(g14
g2
Ntp437
Rp438
(dp439
g18
F0.5
sg19
I799830
sg20
g21
((dp440
I00
I798817
sI01
I1013
stp441
Rp442
sg25
I2
sg26
F799831.0
sbs(g8
g67
tp443
g0
(g14
g2
Ntp444
Rp445
(dp446
g18
F0.5
sg19
I799914
sg20
g21
((dp447
I00
I795013
sI01
I4901
stp448
Rp449
sg25
I2
sg26
F799915.0
sbs(g8
S'hasNew'
p450
tp451
g0
(g14
g2
Ntp452
Rp453
(dp454
g18
F0.5
sg19
I799914
sg20
g21
((dp455
I00
I774735
sI01
I25179
stp456
Rp457
sg25
I2
sg26
F799915.0
sbs(g8
g83
tp458
g0
(g14
g2
Ntp459
Rp460
(dp461
g18
F0.5
sg19
I799914
sg20
g21
((dp462
I00
I798490
sI01
I1424
stp463
Rp464
sg25
I2
sg26
F799915.0
sbs(g9
g242
tp465
g0
(g14
g2
Ntp466
Rp467
(dp468
g18
F0.5
sg19
I799830
sg20
g21
((dp469
I00
I799256
sI01
I574
stp470
Rp471
sg25
I2
sg26
F799831.0
sbs(g9
g250
tp472
g0
(g14
g2
Ntp473
Rp474
(dp475
g18
F0.5
sg19
I799830
sg20
g21
((dp476
I00
I795135
sI01
I4695
stp477
Rp478
sg25
I2
sg26
F799831.0
sbs(g9
S'hasExclamation'
p479
tp480
g0
(g14
g2
Ntp481
Rp482
(dp483
g18
F0.5
sg19
I799830
sg20
g21
((dp484
I00
I601514
sI01
I198316
stp485
Rp486
sg25
I2
sg26
F799831.0
sbs(g9
S'hasUgh'
p487
tp488
g0
(g14
g2
Ntp489
Rp490
(dp491
g18
F0.5
sg19
I799830
sg20
g21
((dp492
I00
I749355
sI01
I50475
stp493
Rp494
sg25
I2
sg26
F799831.0
sbs(g8
g163
tp495
g0
(g14
g2
Ntp496
Rp497
(dp498
g18
F0.5
sg19
I799914
sg20
g21
((dp499
I00
I799729
sI01
I185
stp500
Rp501
sg25
I2
sg26
F799915.0
sbs(g9
S'hasClumsy'
p502
tp503
g0
(g14
g2
Ntp504
Rp505
(dp506
g18
F0.5
sg19
I799830
sg20
g21
((dp507
I00
I799748
sI01
I82
stp508
Rp509
sg25
I2
sg26
F799831.0
sbs(g8
g296
tp510
g0
(g14
g2
Ntp511
Rp512
(dp513
g18
F0.5
sg19
I799914
sg20
g21
((dp514
I00
I589634
sI01
I210280
stp515
Rp516
sg25
I2
sg26
F799915.0
sbs(g9
S'hasExcited'
p517
tp518
g0
(g14
g2
Ntp519
Rp520
(dp521
g18
F0.5
sg19
I799830
sg20
g21
((dp522
I00
I797660
sI01
I2170
stp523
Rp524
sg25
I2
sg26
F799831.0
sbs(g9
S'hasLike'
p525
tp526
g0
(g14
g2
Ntp527
Rp528
(dp529
g18
F0.5
sg19
I799830
sg20
g21
((dp530
I00
I761674
sI01
I38156
stp531
Rp532
sg25
I2
sg26
F799831.0
sbs(g9
g195
tp533
g0
(g14
g2
Ntp534
Rp535
(dp536
g18
F0.5
sg19
I799830
sg20
g21
((dp537
I00
I799722
sI01
I108
stp538
Rp539
sg25
I2
sg26
F799831.0
sbs(g8
S'hasUgly'
p540
tp541
g0
(g14
g2
Ntp542
Rp543
(dp544
g18
F0.5
sg19
I799914
sg20
g21
((dp545
I00
I799548
sI01
I366
stp546
Rp547
sg25
I2
sg26
F799915.0
sbs(g9
S'hasWow'
p548
tp549
g0
(g14
g2
Ntp550
Rp551
(dp552
g18
F0.5
sg19
I799830
sg20
g21
((dp553
I00
I794982
sI01
I4848
stp554
Rp555
sg25
I2
sg26
F799831.0
sbs(g9
g334
tp556
g0
(g14
g2
Ntp557
Rp558
(dp559
g18
F0.5
sg19
I799830
sg20
g21
((dp560
I00
I795811
sI01
I4019
stp561
Rp562
sg25
I2
sg26
F799831.0
sbs(g8
g342
tp563
g0
(g14
g2
Ntp564
Rp565
(dp566
g18
F0.5
sg19
I799914
sg20
g21
((dp567
I00
I798315
sI01
I1599
stp568
Rp569
sg25
I2
sg26
F799915.0
sbs(g8
g234
tp570
g0
(g14
g2
Ntp571
Rp572
(dp573
g18
F0.5
sg19
I799914
sg20
g21
((dp574
I00
I793158
sI01
I6756
stp575
Rp576
sg25
I2
sg26
F799915.0
sbs(g9
S'hasHot'
p577
tp578
g0
(g14
g2
Ntp579
Rp580
(dp581
g18
F0.5
sg19
I799830
sg20
g21
((dp582
I00
I795004
sI01
I4826
stp583
Rp584
sg25
I2
sg26
F799831.0
sbs(g9
S'hasSmiley'
p585
tp586
g0
(g14
g2
Ntp587
Rp588
(dp589
g18
F0.5
sg19
I799830
sg20
g21
((dp590
I00
I799214
sI01
I616
stp591
Rp592
sg25
I2
sg26
F799831.0
sbs(g9
S'hasFavorite'
p593
tp594
g0
(g14
g2
Ntp595
Rp596
(dp597
g18
F0.5
sg19
I799830
sg20
g21
((dp598
I00
I798435
sI01
I1395
stp599
Rp600
sg25
I2
sg26
F799831.0
sbs(g8
g358
tp601
g0
(g14
g2
Ntp602
Rp603
(dp604
g18
F0.5
sg19
I799914
sg20
g21
((dp605
I00
I799736
sI01
I178
stp606
Rp607
sg25
I2
sg26
F799915.0
sbs(g9
g266
tp608
g0
(g14
g2
Ntp609
Rp610
(dp611
g18
F0.5
sg19
I799830
sg20
g21
((dp612
I00
I788326
sI01
I11504
stp613
Rp614
sg25
I2
sg26
F799831.0
sbs(g9
g389
tp615
g0
(g14
g2
Ntp616
Rp617
(dp618
g18
F0.5
sg19
I799830
sg20
g21
((dp619
I00
I797984
sI01
I1846
stp620
Rp621
sg25
I2
sg26
F799831.0
sbs(g9
g187
tp622
g0
(g14
g2
Ntp623
Rp624
(dp625
g18
F0.5
sg19
I799830
sg20
g21
((dp626
I00
I791229
sI01
I8601
stp627
Rp628
sg25
I2
sg26
F799831.0
sbs(g8
S'hasFriend'
p629
tp630
g0
(g14
g2
Ntp631
Rp632
(dp633
g18
F0.5
sg19
I799914
sg20
g21
((dp634
I00
I795532
sI01
I4382
stp635
Rp636
sg25
I2
sg26
F799915.0
sbs(g9
S'hasRude'
p637
tp638
g0
(g14
g2
Ntp639
Rp640
(dp641
g18
F0.5
sg19
I799830
sg20
g21
((dp642
I00
I791400
sI01
I8430
stp643
Rp644
sg25
I2
sg26
F799831.0
sbs(g8
g427
tp645
g0
(g14
g2
Ntp646
Rp647
(dp648
g18
F0.5
sg19
I799914
sg20
g21
((dp649
I00
I799813
sI01
I101
stp650
Rp651
sg25
I2
sg26
F799915.0
sbs(g8
S'hasGood'
p652
tp653
g0
(g14
g2
Ntp654
Rp655
(dp656
g18
F0.5
sg19
I799914
sg20
g21
((dp657
I00
I738100
sI01
I61814
stp658
Rp659
sg25
I2
sg26
F799915.0
sbs(g9
S'hasFuck'
p660
tp661
g0
(g14
g2
Ntp662
Rp663
(dp664
g18
F0.5
sg19
I799830
sg20
g21
((dp665
I00
I791821
sI01
I8009
stp666
Rp667
sg25
I2
sg26
F799831.0
sbs(g9
S'hasRocks'
p668
tp669
g0
(g14
g2
Ntp670
Rp671
(dp672
g18
F0.5
sg19
I799830
sg20
g21
((dp673
I00
I799619
sI01
I211
stp674
Rp675
sg25
I2
sg26
F799831.0
sbs(g8
g479
tp676
g0
(g14
g2
Ntp677
Rp678
(dp679
g18
F0.5
sg19
I799914
sg20
g21
((dp680
I00
I516915
sI01
I282999
stp681
Rp682
sg25
I2
sg26
F799915.0
sbs(g8
g487
tp683
g0
(g14
g2
Ntp684
Rp685
(dp686
g18
F0.5
sg19
I799914
sg20
g21
((dp687
I00
I765575
sI01
I34339
stp688
Rp689
sg25
I2
sg26
F799915.0
sbs(g9
g374
tp690
g0
(g14
g2
Ntp691
Rp692
(dp693
g18
F0.5
sg19
I799830
sg20
g21
((dp694
I00
I799729
sI01
I101
stp695
Rp696
sg25
I2
sg26
F799831.0
sbs(g9
S'hasDont'
p697
tp698
g0
(g14
g2
Ntp699
Rp700
(dp701
g18
F0.5
sg19
I799830
sg20
g21
((dp702
I00
I749755
sI01
I50075
stp703
Rp704
sg25
I2
sg26
F799831.0
sbs(g9
S'hasHeart'
p705
tp706
g0
(g14
g2
Ntp707
Rp708
(dp709
g18
F0.5
sg19
I799830
sg20
g21
((dp710
I00
I796729
sI01
I3101
stp711
Rp712
sg25
I2
sg26
F799831.0
sbs(g8
g397
tp713
g0
(g14
g2
Ntp714
Rp715
(dp716
g18
F0.5
sg19
I799914
sg20
g21
((dp717
I00
I799815
sI01
I99
stp718
Rp719
sg25
I2
sg26
F799915.0
sbs(g8
S'hasImprove'
p720
tp721
g0
(g14
g2
Ntp722
Rp723
(dp724
g18
F0.5
sg19
I799914
sg20
g21
((dp725
I00
I799535
sI01
I379
stp726
Rp727
sg25
I2
sg26
F799915.0
sbs(g8
g525
tp728
g0
(g14
g2
Ntp729
Rp730
(dp731
g18
F0.5
sg19
I799914
sg20
g21
((dp732
I00
I765421
sI01
I34493
stp733
Rp734
sg25
I2
sg26
F799915.0
sbs(g9
g419
tp735
g0
(g14
g2
Ntp736
Rp737
(dp738
g18
F0.5
sg19
I799830
sg20
g21
((dp739
I00
I755742
sI01
I44088
stp740
Rp741
sg25
I2
sg26
F799831.0
sbs(g9
S'hasFast'
p742
tp743
g0
(g14
g2
Ntp744
Rp745
(dp746
g18
F0.5
sg19
I799830
sg20
g21
((dp747
I00
I795684
sI01
I4146
stp748
Rp749
sg25
I2
sg26
F799831.0
sbs(g8
g577
tp750
g0
(g14
g2
Ntp751
Rp752
(dp753
g18
F0.5
sg19
I799914
sg20
g21
((dp754
I00
I798472
sI01
I1442
stp755
Rp756
sg25
I2
sg26
F799915.0
sbs(g9
S'hasShallow'
p757
tp758
g0
(g14
g2
Ntp759
Rp760
(dp761
g18
F0.5
sg19
I799830
sg20
g21
((dp762
I00
I799779
sI01
I51
stp763
Rp764
sg25
I2
sg26
F799831.0
sbs(g9
g450
tp765
g0
(g14
g2
Ntp766
Rp767
(dp768
g18
F0.5
sg19
I799830
sg20
g21
((dp769
I00
I785208
sI01
I14622
stp770
Rp771
sg25
I2
sg26
F799831.0
sbs(g8
S'hasCant'
p772
tp773
g0
(g14
g2
Ntp774
Rp775
(dp776
g18
F0.5
sg19
I799914
sg20
g21
((dp777
I00
I781440
sI01
I18474
stp778
Rp779
sg25
I2
sg26
F799915.0
sbs(g8
S'hasConfident'
p780
tp781
g0
(g14
g2
Ntp782
Rp783
(dp784
g18
F0.5
sg19
I799914
sg20
g21
((dp785
I00
I799755
sI01
I159
stp786
Rp787
sg25
I2
sg26
F799915.0
sbs(g8
g502
tp788
g0
(g14
g2
Ntp789
Rp790
(dp791
g18
F0.5
sg19
I799914
sg20
g21
((dp792
I00
I799857
sI01
I57
stp793
Rp794
sg25
I2
sg26
F799915.0
sbs(g9
g780
tp795
g0
(g14
g2
Ntp796
Rp797
(dp798
g18
F0.5
sg19
I799830
sg20
g21
((dp799
I00
I799745
sI01
I85
stp800
Rp801
sg25
I2
sg26
F799831.0
sbs(g8
S'hasFlunk'
p802
tp803
g0
(g14
g2
Ntp804
Rp805
(dp806
g18
F0.5
sg19
I799914
sg20
g21
((dp807
I00
I799910
sI01
I4
stp808
Rp809
sg25
I2
sg26
F799915.0
sbs(g9
S'hasSmile'
p810
tp811
g0
(g14
g2
Ntp812
Rp813
(dp814
g18
F0.5
sg19
I799830
sg20
g21
((dp815
I00
I799003
sI01
I827
stp816
Rp817
sg25
I2
sg26
F799831.0
sbs(g9
S'hasWin'
p818
tp819
g0
(g14
g2
Ntp820
Rp821
(dp822
g18
F0.5
sg19
I799830
sg20
g21
((dp823
I00
I796831
sI01
I2999
stp824
Rp825
sg25
I2
sg26
F799831.0
sbs(g9
g226
tp826
g0
(g14
g2
Ntp827
Rp828
(dp829
g18
F0.5
sg19
I799830
sg20
g21
((dp830
I00
I795741
sI01
I4089
stp831
Rp832
sg25
I2
sg26
F799831.0
sbs(g9
g540
tp833
g0
(g14
g2
Ntp834
Rp835
(dp836
g18
F0.5
sg19
I799830
sg20
g21
((dp837
I00
I798941
sI01
I889
stp838
Rp839
sg25
I2
sg26
F799831.0
sbs(g9
S'hasStupid'
p840
tp841
g0
(g14
g2
Ntp842
Rp843
(dp844
g18
F0.5
sg19
I799830
sg20
g21
((dp845
I00
I793293
sI01
I6537
stp846
Rp847
sg25
I2
sg26
F799831.0
sbs(g8
g548
tp848
g0
(g14
g2
Ntp849
Rp850
(dp851
g18
F0.5
sg19
I799914
sg20
g21
((dp852
I00
I793026
sI01
I6888
stp853
Rp854
sg25
I2
sg26
F799915.0
sbs(g8
g350
tp855
g0
(g14
g2
Ntp856
Rp857
(dp858
g18
F0.5
sg19
I799914
sg20
g21
((dp859
I00
I799506
sI01
I408
stp860
Rp861
sg25
I2
sg26
F799915.0
sbs(g9
S'hasRidiculous'
p862
tp863
g0
(g14
g2
Ntp864
Rp865
(dp866
g18
F0.5
sg19
I799830
sg20
g21
((dp867
I00
I799262
sI01
I568
stp868
Rp869
sg25
I2
sg26
F799831.0
sbs(g8
g593
tp870
g0
(g14
g2
Ntp871
Rp872
(dp873
g18
F0.5
sg19
I799914
sg20
g21
((dp874
I00
I796816
sI01
I3098
stp875
Rp876
sg25
I2
sg26
F799915.0
sbs(g8
S'hasHappy'
p877
tp878
g0
(g14
g2
Ntp879
Rp880
(dp881
g18
F0.5
sg19
I799914
sg20
g21
((dp882
I00
I778564
sI01
I21350
stp883
Rp884
sg25
I2
sg26
F799915.0
sbs(g9
S'hasHaha'
p885
tp886
g0
(g14
g2
Ntp887
Rp888
(dp889
g18
F0.5
sg19
I799830
sg20
g21
((dp890
I00
I785912
sI01
I13918
stp891
Rp892
sg25
I2
sg26
F799831.0
sbs(g8
g697
tp893
g0
(g14
g2
Ntp894
Rp895
(dp896
g18
F0.5
sg19
I799914
sg20
g21
((dp897
I00
I776637
sI01
I23277
stp898
Rp899
sg25
I2
sg26
F799915.0
sbs(g8
g585
tp900
g0
(g14
g2
Ntp901
Rp902
(dp903
g18
F0.5
sg19
I799914
sg20
g21
((dp904
I00
I798940
sI01
I974
stp905
Rp906
sg25
I2
sg26
F799915.0
sbs(g9
g629
tp907
g0
(g14
g2
Ntp908
Rp909
(dp910
g18
F0.5
sg19
I799830
sg20
g21
((dp911
I00
I795584
sI01
I4246
stp912
Rp913
sg25
I2
sg26
F799831.0
sbs(g9
g802
tp914
g0
(g14
g2
Ntp915
Rp916
(dp917
g18
F0.5
sg19
I799830
sg20
g21
((dp918
I00
I799816
sI01
I14
stp919
Rp920
sg25
I2
sg26
F799831.0
sbs(g9
g35
tp921
g0
(g14
g2
Ntp922
Rp923
(dp924
g18
F0.5
sg19
I799830
sg20
g21
((dp925
I00
I797816
sI01
I2014
stp926
Rp927
sg25
I2
sg26
F799831.0
sbs(g9
S'hasBad'
p928
tp929
g0
(g14
g2
Ntp930
Rp931
(dp932
g18
F0.5
sg19
I799830
sg20
g21
((dp933
I00
I779336
sI01
I20494
stp934
Rp935
sg25
I2
sg26
F799831.0
sbs(g9
g319
tp936
g0
(g14
g2
Ntp937
Rp938
(dp939
g18
F0.5
sg19
I799830
sg20
g21
((dp940
I00
I795116
sI01
I4714
stp941
Rp942
sg25
I2
sg26
F799831.0
sbs(g9
g652
tp943
g0
(g14
g2
Ntp944
Rp945
(dp946
g18
F0.5
sg19
I799830
sg20
g21
((dp947
I00
I774125
sI01
I25705
stp948
Rp949
sg25
I2
sg26
F799831.0
sbs(g8
S'hasAche'
p950
tp951
g0
(g14
g2
Ntp952
Rp953
(dp954
g18
F0.5
sg19
I799914
sg20
g21
((dp955
I00
I799799
sI01
I115
stp956
Rp957
sg25
I2
sg26
F799915.0
sbs(g8
g660
tp958
g0
(g14
g2
Ntp959
Rp960
(dp961
g18
F0.5
sg19
I799914
sg20
g21
((dp962
I00
I796488
sI01
I3426
stp963
Rp964
sg25
I2
sg26
F799915.0
sbs(g8
g75
tp965
g0
(g14
g2
Ntp966
Rp967
(dp968
g18
F0.5
sg19
I799914
sg20
g21
((dp969
I00
I799153
sI01
I761
stp970
Rp971
sg25
I2
sg26
F799915.0
sbs(g8
g99
tp972
g0
(g14
g2
Ntp973
Rp974
(dp975
g18
F0.5
sg19
I799914
sg20
g21
((dp976
I00
I799870
sI01
I44
stp977
Rp978
sg25
I2
sg26
F799915.0
sbs(g9
S'hasSweet'
p979
tp980
g0
(g14
g2
Ntp981
Rp982
(dp983
g18
F0.5
sg19
I799830
sg20
g21
((dp984
I00
I796649
sI01
I3181
stp985
Rp986
sg25
I2
sg26
F799831.0
sbs(g8
g757
tp987
g0
(g14
g2
Ntp988
Rp989
(dp990
g18
F0.5
sg19
I799914
sg20
g21
((dp991
I00
I799856
sI01
I58
stp992
Rp993
sg25
I2
sg26
F799915.0
sbs(g8
g979
tp994
g0
(g14
g2
Ntp995
Rp996
(dp997
g18
F0.5
sg19
I799914
sg20
g21
((dp998
I00
I791588
sI01
I8326
stp999
Rp1000
sg25
I2
sg26
F799915.0
sbs(g8
S'hasFail'
p1001
tp1002
g0
(g14
g2
Ntp1003
Rp1004
(dp1005
g18
F0.5
sg19
I799914
sg20
g21
((dp1006
I00
I798644
sI01
I1270
stp1007
Rp1008
sg25
I2
sg26
F799915.0
sbs(g8
g131
tp1009
g0
(g14
g2
Ntp1010
Rp1011
(dp1012
g18
F0.5
sg19
I799914
sg20
g21
((dp1013
I00
I799683
sI01
I231
stp1014
Rp1015
sg25
I2
sg26
F799915.0
sbs(g8
g668
tp1016
g0
(g14
g2
Ntp1017
Rp1018
(dp1019
g18
F0.5
sg19
I799914
sg20
g21
((dp1020
I00
I799174
sI01
I740
stp1021
Rp1022
sg25
I2
sg26
F799915.0
sbs(g8
g155
tp1023
g0
(g14
g2
Ntp1024
Rp1025
(dp1026
g18
F0.5
sg19
I799914
sg20
g21
((dp1027
I00
I799302
sI01
I612
stp1028
Rp1029
sg25
I2
sg26
F799915.0
sbs(g8
g705
tp1030
g0
(g14
g2
Ntp1031
Rp1032
(dp1033
g18
F0.5
sg19
I799914
sg20
g21
((dp1034
I00
I793293
sI01
I6621
stp1035
Rp1036
sg25
I2
sg26
F799915.0
sbs(g8
g27
tp1037
g0
(g14
g2
Ntp1038
Rp1039
(dp1040
g18
F0.5
sg19
I799914
sg20
g21
((dp1041
I00
I799550
sI01
I364
stp1042
Rp1043
sg25
I2
sg26
F799915.0
sbs(g9
g720
tp1044
g0
(g14
g2
Ntp1045
Rp1046
(dp1047
g18
F0.5
sg19
I799830
sg20
g21
((dp1048
I00
I799596
sI01
I234
stp1049
Rp1050
sg25
I2
sg26
F799831.0
sbs(g8
g810
tp1051
g0
(g14
g2
Ntp1052
Rp1053
(dp1054
g18
F0.5
sg19
I799914
sg20
g21
((dp1055
I00
I796206
sI01
I3708
stp1056
Rp1057
sg25
I2
sg26
F799915.0
sbs(g8
g311
tp1058
g0
(g14
g2
Ntp1059
Rp1060
(dp1061
g18
F0.5
sg19
I799914
sg20
g21
((dp1062
I00
I787564
sI01
I12350
stp1063
Rp1064
sg25
I2
sg26
F799915.0
sbs(g8
g742
tp1065
g0
(g14
g2
Ntp1066
Rp1067
(dp1068
g18
F0.5
sg19
I799914
sg20
g21
((dp1069
I00
I794924
sI01
I4990
stp1070
Rp1071
sg25
I2
sg26
F799915.0
sbs(g9
g218
tp1072
g0
(g14
g2
Ntp1073
Rp1074
(dp1075
g18
F0.5
sg19
I799830
sg20
g21
((dp1076
I00
I785461
sI01
I14369
stp1077
Rp1078
sg25
I2
sg26
F799831.0
sbs(g8
g139
tp1079
g0
(g14
g2
Ntp1080
Rp1081
(dp1082
g18
F0.5
sg19
I799914
sg20
g21
((dp1083
I00
I797819
sI01
I2095
stp1084
Rp1085
sg25
I2
sg26
F799915.0
sbs(g8
g107
tp1086
g0
(g14
g2
Ntp1087
Rp1088
(dp1089
g18
F0.5
sg19
I799914
sg20
g21
((dp1090
I00
I799913
sI01
I1
stp1091
Rp1092
sg25
I2
sg26
F799915.0
sbs(g9
g123
tp1093
g0
(g14
g2
Ntp1094
Rp1095
(dp1096
g18
F0.5
sg19
I799830
sg20
g21
((dp1097
I00
I798000
sI01
I1830
stp1098
Rp1099
sg25
I2
sg26
F799831.0
sbs(g8
g840
tp1100
g0
(g14
g2
Ntp1101
Rp1102
(dp1103
g18
F0.5
sg19
I799914
sg20
g21
((dp1104
I00
I798223
sI01
I1691
stp1105
Rp1106
sg25
I2
sg26
F799915.0
sbs(g9
g772
tp1107
g0
(g14
g2
Ntp1108
Rp1109
(dp1110
g18
F0.5
sg19
I799830
sg20
g21
((dp1111
I00
I758178
sI01
I41652
stp1112
Rp1113
sg25
I2
sg26
F799831.0
sbs(g8
S'hasSuper'
p1114
tp1115
g0
(g14
g2
Ntp1116
Rp1117
(dp1118
g18
F0.5
sg19
I799914
sg20
g21
((dp1119
I00
I795126
sI01
I4788
stp1120
Rp1121
sg25
I2
sg26
F799915.0
sbs(g9
g258
tp1122
g0
(g14
g2
Ntp1123
Rp1124
(dp1125
g18
F0.5
sg19
I799830
sg20
g21
((dp1126
I00
I797386
sI01
I2444
stp1127
Rp1128
sg25
I2
sg26
F799831.0
sbs(g9
g147
tp1129
g0
(g14
g2
Ntp1130
Rp1131
(dp1132
g18
F0.5
sg19
I799830
sg20
g21
((dp1133
I00
I795611
sI01
I4219
stp1134
Rp1135
sg25
I2
sg26
F799831.0
sbs(g8
g928
tp1136
g0
(g14
g2
Ntp1137
Rp1138
(dp1139
g18
F0.5
sg19
I799914
sg20
g21
((dp1140
I00
I795496
sI01
I4418
stp1141
Rp1142
sg25
I2
sg26
F799915.0
sbs(g9
g1114
tp1143
g0
(g14
g2
Ntp1144
Rp1145
(dp1146
g18
F0.5
sg19
I799830
sg20
g21
((dp1147
I00
I795648
sI01
I4182
stp1148
Rp1149
sg25
I2
sg26
F799831.0
sbs(g9
g171
tp1150
g0
(g14
g2
Ntp1151
Rp1152
(dp1153
g18
F0.5
sg19
I799830
sg20
g21
((dp1154
I00
I774701
sI01
I25129
stp1155
Rp1156
sg25
I2
sg26
F799831.0
sbs(g9
g950
tp1157
g0
(g14
g2
Ntp1158
Rp1159
(dp1160
g18
F0.5
sg19
I799830
sg20
g21
((dp1161
I00
I798721
sI01
I1109
stp1162
Rp1163
sg25
I2
sg26
F799831.0
sbs(g8
g435
tp1164
g0
(g14
g2
Ntp1165
Rp1166
(dp1167
g18
F0.5
sg19
I799914
sg20
g21
((dp1168
I00
I799482
sI01
I432
stp1169
Rp1170
sg25
I2
sg26
F799915.0
sbs(g8
g818
tp1171
g0
(g14
g2
Ntp1172
Rp1173
(dp1174
g18
F0.5
sg19
I799914
sg20
g21
((dp1175
I00
I796051
sI01
I3863
stp1176
Rp1177
sg25
I2
sg26
F799915.0
sbs(g8
g637
tp1178
g0
(g14
g2
Ntp1179
Rp1180
(dp1181
g18
F0.5
sg19
I799914
sg20
g21
((dp1182
I00
I792578
sI01
I7336
stp1183
Rp1184
sg25
I2
sg26
F799915.0
sbs(g8
g517
tp1185
g0
(g14
g2
Ntp1186
Rp1187
(dp1188
g18
F0.5
sg19
I799914
sg20
g21
((dp1189
I00
I793497
sI01
I6417
stp1190
Rp1191
sg25
I2
sg26
F799915.0
sbs(g8
g862
tp1192
g0
(g14
g2
Ntp1193
Rp1194
(dp1195
g18
F0.5
sg19
I799914
sg20
g21
((dp1196
I00
I799599
sI01
I315
stp1197
Rp1198
sg25
I2
sg26
F799915.0
sbs(g8
g274
tp1199
g0
(g14
g2
Ntp1200
Rp1201
(dp1202
g18
F0.5
sg19
I799914
sg20
g21
((dp1203
I00
I799678
sI01
I236
stp1204
Rp1205
sg25
I2
sg26
F799915.0
sbs(g9
g1001
tp1206
g0
(g14
g2
Ntp1207
Rp1208
(dp1209
g18
F0.5
sg19
I799830
sg20
g21
((dp1210
I00
I794242
sI01
I5588
stp1211
Rp1212
sg25
I2
sg26
F799831.0
sbs(g9
g877
tp1213
g0
(g14
g2
Ntp1214
Rp1215
(dp1216
g18
F0.5
sg19
I799830
sg20
g21
((dp1217
I00
I792488
sI01
I7342
stp1218
Rp1219
sg25
I2
sg26
F799831.0
sbs(g8
g366
tp1220
g0
(g14
g2
Ntp1221
Rp1222
(dp1223
g18
F0.5
sg19
I799914
sg20
g21
((dp1224
I00
I798762
sI01
I1152
stp1225
Rp1226
sg25
I2
sg26
F799915.0
sbs(g8
g885
tp1227
g0
(g14
g2
Ntp1228
Rp1229
(dp1230
g18
F0.5
sg19
I799914
sg20
g21
((dp1231
I00
I768342
sI01
I31572
stp1232
Rp1233
sg25
I2
sg26
F799915.0
sbssS'_label_probdist'
p1234
g0
(g14
g2
Ntp1235
Rp1236
(dp1237
g18
F0.5
sg19
I1599744
sg20
g21
((dp1238
g8
I799914
sg9
I799830
stp1239
Rp1240
sg25
I2
sg26
F1599745.0
sbsb.